ARM GAS  C:\Users\IEUser\AppData\Local\Temp\ccz6QT8i.s 			page 1


   1              		.syntax unified
   2              		.cpu cortex-m3
   3              		.fpu softvfp
   4              		.eabi_attribute 20, 1
   5              		.eabi_attribute 21, 1
   6              		.eabi_attribute 23, 3
   7              		.eabi_attribute 24, 1
   8              		.eabi_attribute 25, 1
   9              		.eabi_attribute 26, 1
  10              		.eabi_attribute 30, 1
  11              		.eabi_attribute 34, 1
  12              		.eabi_attribute 18, 4
  13              		.thumb
  14              		.syntax unified
  15              		.file	"main.c"
  16              		.text
  17              	.Ltext0:
  18              		.cfi_sections	.debug_frame
  19              		.section	.text.freeRTOSInit,"ax",%progbits
  20              		.align	2
  21              		.thumb
  22              		.thumb_func
  23              		.type	freeRTOSInit, %function
  24              	freeRTOSInit:
  25              	.LFB69:
  26              		.file 1 "main.c"
   1:main.c        **** /* ========================================
   2:main.c        ****  *
   3:main.c        ****  *              ELECH410 labs
   4:main.c        ****  *          FreeRTOS pandemic project
   5:main.c        ****  * 
   6:main.c        ****  *                   2020
   7:main.c        ****  *
   8:main.c        ****  * ========================================
   9:main.c        **** */
  10:main.c        **** #include "project.h"
  11:main.c        **** 
  12:main.c        **** /* RTOS includes. */
  13:main.c        **** #include "FreeRTOS.h"
  14:main.c        **** #include "task.h"
  15:main.c        **** #include "timers.h"
  16:main.c        **** #include "queue.h"
  17:main.c        **** #include "semphr.h"
  18:main.c        **** 
  19:main.c        **** #include "pandemic.h"
  20:main.c        **** 
  21:main.c        **** #define TASK_STACK_SIZE (1024)
  22:main.c        **** 
  23:main.c        **** /* Task definitions */
  24:main.c        **** #define GAME_TASK_NAME ("game_task")
  25:main.c        **** #define QUARANTINE_TASK_NAME ("quarantine_task")
  26:main.c        **** #define VACCINE_PRODUCER_TASK_NAME ("vaccine_producer_task")
  27:main.c        **** #define SCREEN_UPDATE_TASK_NAME ("screen_update_task")
  28:main.c        **** #define MEDICINE_PRODUCER_TASK_NAME ("medicine_producer_task")
  29:main.c        **** 
  30:main.c        **** /* Task priority */
  31:main.c        **** #define GAME_PRIORITY (20)
ARM GAS  C:\Users\IEUser\AppData\Local\Temp\ccz6QT8i.s 			page 2


  32:main.c        **** #define QUARANTINE_PRIORITY (18)
  33:main.c        **** #define SCREEN_UPDATE_PRIORITY (16)
  34:main.c        **** #define VACCINE_PRODUCER_PRIORITY (14)
  35:main.c        **** #define MEDICINE_PRODUCER_PRIORITY (12)  
  36:main.c        **** 
  37:main.c        **** /* Semaphore */
  38:main.c        **** SemaphoreHandle_t labMutex, contaminationSemaphore;
  39:main.c        **** QueueHandle_t clueQueue;
  40:main.c        **** 
  41:main.c        **** /* Task handlers */
  42:main.c        **** TaskHandle_t gameHandler, quarantineHandler, vaccineProducerHandler,
  43:main.c        **** screenUpdateHandler, medicineProducerHandler;
  44:main.c        **** 
  45:main.c        **** /*
  46:main.c        ****  * Installs the RTOS interrupt handlers.
  47:main.c        ****  */
  48:main.c        **** static void freeRTOSInit( void );
  49:main.c        **** 
  50:main.c        **** /* Task declarations */
  51:main.c        **** void quarantineTask();
  52:main.c        **** void vaccineProducerTask();
  53:main.c        **** void screenUpdateTask();
  54:main.c        **** void medicineProducerTask();
  55:main.c        **** 
  56:main.c        **** /* Other functions declarations */
  57:main.c        **** void printCounter(char* numberAsChar, uint8_t position, uint8_t charNbr);
  58:main.c        **** void convertPercentage(uint8_t number, char* numberAsChar);
  59:main.c        **** void putCntrOnLCD(uint8_t cntr, uint8_t* position);
  60:main.c        **** void putSpaceOnLCD(uint8_t position);
  61:main.c        **** 
  62:main.c        **** int main(void)
  63:main.c        **** {
  64:main.c        ****     /* Enable global interrupts. */
  65:main.c        ****     CyGlobalIntEnable; 
  66:main.c        ****     
  67:main.c        ****     freeRTOSInit();
  68:main.c        ****     
  69:main.c        ****     /* Place your initialization/startup code here (e.g. MyInst_Start()) */
  70:main.c        ****     LCD_Start();
  71:main.c        ****     KB_Start();
  72:main.c        ****     
  73:main.c        ****     // Create tasks
  74:main.c        ****     xTaskCreate( gameTask, GAME_TASK_NAME, TASK_STACK_SIZE, NULL, GAME_PRIORITY, &gameHandler );
  75:main.c        ****     xTaskCreate( quarantineTask,QUARANTINE_TASK_NAME, TASK_STACK_SIZE, NULL, QUARANTINE_PRIORITY, &
  76:main.c        ****     xTaskCreate( vaccineProducerTask, VACCINE_PRODUCER_TASK_NAME, TASK_STACK_SIZE, NULL, VACCINE_PR
  77:main.c        ****     xTaskCreate( screenUpdateTask, SCREEN_UPDATE_TASK_NAME, TASK_STACK_SIZE, NULL, SCREEN_UPDATE_PR
  78:main.c        ****     xTaskCreate( medicineProducerTask, MEDICINE_PRODUCER_TASK_NAME, TASK_STACK_SIZE, NULL, MEDICINE
  79:main.c        ****     
  80:main.c        ****     contaminationSemaphore = xSemaphoreCreateBinary();
  81:main.c        ****     labMutex = xSemaphoreCreateMutex();
  82:main.c        ****     clueQueue = xQueueCreate(1, sizeof(Token));
  83:main.c        **** 
  84:main.c        ****     // Launch freeRTOS
  85:main.c        ****     vTaskStartScheduler();
  86:main.c        ****     
  87:main.c        ****     for(;;)
  88:main.c        ****     {
ARM GAS  C:\Users\IEUser\AppData\Local\Temp\ccz6QT8i.s 			page 3


  89:main.c        ****     }
  90:main.c        **** }
  91:main.c        **** 
  92:main.c        **** void freeRTOSInit( void )
  93:main.c        **** {
  27              		.loc 1 93 0
  28              		.cfi_startproc
  29              		@ args = 0, pretend = 0, frame = 0
  30              		@ frame_needed = 0, uses_anonymous_args = 0
  31              		@ link register save eliminated.
  94:main.c        ****     /* Port layer functions that need to be copied into the vector table. */
  95:main.c        ****     extern void xPortPendSVHandler( void );
  96:main.c        ****     extern void xPortSysTickHandler( void );
  97:main.c        ****     extern void vPortSVCHandler( void );
  98:main.c        ****     extern cyisraddress CyRamVectors[];
  99:main.c        **** 
 100:main.c        **** 	/* Install the OS Interrupt Handlers. */
 101:main.c        **** 	CyRamVectors[ 11 ] = ( cyisraddress ) vPortSVCHandler;
  32              		.loc 1 101 0
  33 0000 034B     		ldr	r3, .L2
  34 0002 044A     		ldr	r2, .L2+4
  35 0004 DA62     		str	r2, [r3, #44]
 102:main.c        **** 	CyRamVectors[ 14 ] = ( cyisraddress ) xPortPendSVHandler;
  36              		.loc 1 102 0
  37 0006 044A     		ldr	r2, .L2+8
  38 0008 9A63     		str	r2, [r3, #56]
 103:main.c        **** 	CyRamVectors[ 15 ] = ( cyisraddress ) xPortSysTickHandler;
  39              		.loc 1 103 0
  40 000a 044A     		ldr	r2, .L2+12
  41 000c DA63     		str	r2, [r3, #60]
  42 000e 7047     		bx	lr
  43              	.L3:
  44              		.align	2
  45              	.L2:
  46 0010 00000000 		.word	CyRamVectors
  47 0014 00000000 		.word	vPortSVCHandler
  48 0018 00000000 		.word	xPortPendSVHandler
  49 001c 00000000 		.word	xPortSysTickHandler
  50              		.cfi_endproc
  51              	.LFE69:
  52              		.size	freeRTOSInit, .-freeRTOSInit
  53              		.section	.text.quarantineTask,"ax",%progbits
  54              		.align	2
  55              		.global	quarantineTask
  56              		.thumb
  57              		.thumb_func
  58              		.type	quarantineTask, %function
  59              	quarantineTask:
  60              	.LFB72:
 104:main.c        **** }
 105:main.c        **** 
 106:main.c        **** /*
 107:main.c        ****  * Notify the quarantine task thatthe contamination has been released
 108:main.c        ****  * 
 109:main.c        ****  */
 110:main.c        **** void releaseContamination()
 111:main.c        **** {
ARM GAS  C:\Users\IEUser\AppData\Local\Temp\ccz6QT8i.s 			page 4


 112:main.c        ****     xSemaphoreGive(contaminationSemaphore);
 113:main.c        **** }
 114:main.c        **** 
 115:main.c        **** /*
 116:main.c        ****  * Notify the vaccine producer that a clue has been released
 117:main.c        ****  * 
 118:main.c        ****  */
 119:main.c        **** void releaseClue( Token clue )
 120:main.c        **** {
 121:main.c        ****     xQueueSendToBack(clueQueue, (void*)&clue, 0);
 122:main.c        **** }
 123:main.c        **** 
 124:main.c        **** /*
 125:main.c        ****  * Wait for contamination and put quarantine in place
 126:main.c        ****  * 
 127:main.c        ****  */
 128:main.c        **** void quarantineTask()
 129:main.c        **** {
  61              		.loc 1 129 0
  62              		.cfi_startproc
  63              		@ Volatile: function does not return.
  64              		@ args = 0, pretend = 0, frame = 0
  65              		@ frame_needed = 0, uses_anonymous_args = 0
  66 0000 08B5     		push	{r3, lr}
  67              		.cfi_def_cfa_offset 8
  68              		.cfi_offset 3, -8
  69              		.cfi_offset 14, -4
  70              	.L5:
 130:main.c        ****     for(;;)
 131:main.c        ****     {
 132:main.c        ****         xSemaphoreTake(contaminationSemaphore, portMAX_DELAY);
  71              		.loc 1 132 0 discriminator 1
  72 0002 4FF0FF31 		mov	r1, #-1
  73 0006 034B     		ldr	r3, .L7
  74 0008 1868     		ldr	r0, [r3]
  75 000a FFF7FEFF 		bl	xQueueSemaphoreTake
  76              	.LVL0:
 133:main.c        ****         quarantine();
  77              		.loc 1 133 0 discriminator 1
  78 000e FFF7FEFF 		bl	quarantine
  79              	.LVL1:
  80 0012 F6E7     		b	.L5
  81              	.L8:
  82              		.align	2
  83              	.L7:
  84 0014 00000000 		.word	contaminationSemaphore
  85              		.cfi_endproc
  86              	.LFE72:
  87              		.size	quarantineTask, .-quarantineTask
  88              		.section	.text.vaccineProducerTask,"ax",%progbits
  89              		.align	2
  90              		.global	vaccineProducerTask
  91              		.thumb
  92              		.thumb_func
  93              		.type	vaccineProducerTask, %function
  94              	vaccineProducerTask:
  95              	.LFB73:
ARM GAS  C:\Users\IEUser\AppData\Local\Temp\ccz6QT8i.s 			page 5


 134:main.c        ****     }
 135:main.c        **** }
 136:main.c        **** 
 137:main.c        **** /*
 138:main.c        ****  * Wait for clues and process them
 139:main.c        ****  * 
 140:main.c        ****  */
 141:main.c        **** void vaccineProducerTask()
 142:main.c        **** {
  96              		.loc 1 142 0
  97              		.cfi_startproc
  98              		@ args = 0, pretend = 0, frame = 8
  99              		@ frame_needed = 0, uses_anonymous_args = 0
 100 0000 30B5     		push	{r4, r5, lr}
 101              		.cfi_def_cfa_offset 12
 102              		.cfi_offset 4, -12
 103              		.cfi_offset 5, -8
 104              		.cfi_offset 14, -4
 105 0002 83B0     		sub	sp, sp, #12
 106              		.cfi_def_cfa_offset 24
 107              	.L10:
 143:main.c        ****     Token clue, vaccine;
 144:main.c        ****     for(;;)
 145:main.c        ****     {
 146:main.c        ****         xQueueReceive(clueQueue, (void*)&(clue), portMAX_DELAY);
 108              		.loc 1 146 0 discriminator 1
 109 0004 4FF0FF32 		mov	r2, #-1
 110 0008 0DF10701 		add	r1, sp, #7
 111 000c 0C4B     		ldr	r3, .L12
 112 000e 1868     		ldr	r0, [r3]
 113 0010 FFF7FEFF 		bl	xQueueReceive
 114              	.LVL2:
 147:main.c        ****         xSemaphoreTake(labMutex, portMAX_DELAY);
 115              		.loc 1 147 0 discriminator 1
 116 0014 0B4C     		ldr	r4, .L12+4
 117 0016 4FF0FF31 		mov	r1, #-1
 118 001a 2068     		ldr	r0, [r4]
 119 001c FFF7FEFF 		bl	xQueueSemaphoreTake
 120              	.LVL3:
 148:main.c        ****         vaccine = assignMissionToLab(clue);
 121              		.loc 1 148 0 discriminator 1
 122 0020 9DF80700 		ldrb	r0, [sp, #7]	@ zero_extendqisi2
 123 0024 FFF7FEFF 		bl	assignMissionToLab
 124              	.LVL4:
 125 0028 0546     		mov	r5, r0
 126              	.LVL5:
 149:main.c        ****         xSemaphoreGive(labMutex);
 127              		.loc 1 149 0 discriminator 1
 128 002a 0023     		movs	r3, #0
 129 002c 1A46     		mov	r2, r3
 130 002e 1946     		mov	r1, r3
 131 0030 2068     		ldr	r0, [r4]
 132 0032 FFF7FEFF 		bl	xQueueGenericSend
 133              	.LVL6:
 150:main.c        ****         shipVaccine(vaccine);
 134              		.loc 1 150 0 discriminator 1
 135 0036 2846     		mov	r0, r5
ARM GAS  C:\Users\IEUser\AppData\Local\Temp\ccz6QT8i.s 			page 6


 136 0038 FFF7FEFF 		bl	shipVaccine
 137              	.LVL7:
 138 003c E2E7     		b	.L10
 139              	.L13:
 140 003e 00BF     		.align	2
 141              	.L12:
 142 0040 00000000 		.word	clueQueue
 143 0044 00000000 		.word	labMutex
 144              		.cfi_endproc
 145              	.LFE73:
 146              		.size	vaccineProducerTask, .-vaccineProducerTask
 147              		.section	.text.medicineProducerTask,"ax",%progbits
 148              		.align	2
 149              		.global	medicineProducerTask
 150              		.thumb
 151              		.thumb_func
 152              		.type	medicineProducerTask, %function
 153              	medicineProducerTask:
 154              	.LFB79:
 151:main.c        ****     }
 152:main.c        **** }
 153:main.c        **** 
 154:main.c        **** /*
 155:main.c        ****  * Update counters on LCD
 156:main.c        ****  * 
 157:main.c        ****  */
 158:main.c        **** void screenUpdateTask()
 159:main.c        **** {
 160:main.c        ****     
 161:main.c        ****     uint8_t position;
 162:main.c        ****     for(;;)
 163:main.c        ****     {
 164:main.c        ****         position=0; //init.
 165:main.c        ****         
 166:main.c        ****         //TO DO change the function into a MACRO if the overhead caused by function calls is too bi
 167:main.c        ****         putCntrOnLCD(getPopulationCntr(), &position); //print population cntr
 168:main.c        ****         putCntrOnLCD(getVaccineCntr(), &position);
 169:main.c        ****         putCntrOnLCD(getMedicineCntr(), &position);
 170:main.c        ****         
 171:main.c        ****         vTaskDelay(200u);
 172:main.c        ****     }
 173:main.c        **** }
 174:main.c        **** 
 175:main.c        **** /*
 176:main.c        ****  * Put counter chararcter on the LCD at position @position
 177:main.c        ****  * 
 178:main.c        ****  */
 179:main.c        **** void putCntrOnLCD(uint8_t cntr, uint8_t* position)
 180:main.c        **** {   
 181:main.c        ****     char numberAsChar[3];
 182:main.c        ****     uint8_t charNbr;
 183:main.c        ****     
 184:main.c        ****     convertPercentage(cntr, numberAsChar);
 185:main.c        ****     if(cntr>=100) charNbr=2u;
 186:main.c        ****     else if(cntr>=10) charNbr=1u;
 187:main.c        ****     else charNbr=0u;
 188:main.c        ****     printCounter(numberAsChar, *position, charNbr);
ARM GAS  C:\Users\IEUser\AppData\Local\Temp\ccz6QT8i.s 			page 7


 189:main.c        ****     *position += charNbr+1;
 190:main.c        ****     putSpaceOnLCD(*position); //put space
 191:main.c        ****     (*position)++;
 192:main.c        **** }
 193:main.c        **** 
 194:main.c        **** /*
 195:main.c        ****  * Put space chararcter on the LCD at position @position
 196:main.c        ****  * 
 197:main.c        ****  */
 198:main.c        **** void putSpaceOnLCD(uint8_t position)
 199:main.c        **** {
 200:main.c        ****     LCD_Position(0u, position);
 201:main.c        ****     LCD_PutChar(' ');
 202:main.c        **** }
 203:main.c        **** 
 204:main.c        **** /*
 205:main.c        ****  * Put the chararcter in @numberAsChar on the LCD at position @position
 206:main.c        ****  * 
 207:main.c        ****  */
 208:main.c        **** void printCounter(char* numberAsChar, uint8_t position, uint8_t charNbr)
 209:main.c        **** {
 210:main.c        ****     uint8_t i, start=2-charNbr;
 211:main.c        ****     for(i=0 ; i<charNbr+1; i++)
 212:main.c        ****     {
 213:main.c        ****         LCD_Position(0u, position+i);
 214:main.c        ****         LCD_PutChar(numberAsChar[start+i]);
 215:main.c        ****     }
 216:main.c        **** }
 217:main.c        **** 
 218:main.c        **** /*
 219:main.c        ****  * Convert a percentage into a string
 220:main.c        ****  * 
 221:main.c        ****  */
 222:main.c        **** void convertPercentage(uint8_t number, char* numberAsChar)
 223:main.c        **** {
 224:main.c        ****     numberAsChar[0] = number/100+'0'; //hundreds
 225:main.c        ****     numberAsChar[1] = (number%100)/10+'0'; //dozens
 226:main.c        ****     numberAsChar[2] = number%10+'0'; //unit
 227:main.c        **** }
 228:main.c        **** 
 229:main.c        **** /*
 230:main.c        ****  * Produce and ship 5pills at a time
 231:main.c        ****  * 
 232:main.c        ****  */
 233:main.c        **** void medicineProducerTask()
 234:main.c        **** {
 155              		.loc 1 234 0
 156              		.cfi_startproc
 157              		@ args = 0, pretend = 0, frame = 8
 158              		@ frame_needed = 0, uses_anonymous_args = 0
 159 0000 30B5     		push	{r4, r5, lr}
 160              		.cfi_def_cfa_offset 12
 161              		.cfi_offset 4, -12
 162              		.cfi_offset 5, -8
 163              		.cfi_offset 14, -4
 164 0002 83B0     		sub	sp, sp, #12
 165              		.cfi_def_cfa_offset 24
ARM GAS  C:\Users\IEUser\AppData\Local\Temp\ccz6QT8i.s 			page 8


 166              	.L21:
 167              	.LVL8:
 235:main.c        ****     Token medicine[5];
 236:main.c        ****     uint8_t i;
 237:main.c        ****     for(;;)
 238:main.c        ****     {
 239:main.c        ****         for(i=0; i<5; i++)
 168              		.loc 1 239 0
 169 0004 0024     		movs	r4, #0
 170 0006 14E0     		b	.L15
 171              	.LVL9:
 172              	.L16:
 240:main.c        ****         {//produce 5pills at a time
 241:main.c        ****             xSemaphoreTake(labMutex, portMAX_DELAY);
 173              		.loc 1 241 0 discriminator 3
 174 0008 1F4D     		ldr	r5, .L23
 175 000a 4FF0FF31 		mov	r1, #-1
 176 000e 2868     		ldr	r0, [r5]
 177 0010 FFF7FEFF 		bl	xQueueSemaphoreTake
 178              	.LVL10:
 242:main.c        ****             medicine[i] = assignMissionToLab(0);
 179              		.loc 1 242 0 discriminator 3
 180 0014 0020     		movs	r0, #0
 181 0016 FFF7FEFF 		bl	assignMissionToLab
 182              	.LVL11:
 183 001a 02AB     		add	r3, sp, #8
 184 001c 2344     		add	r3, r3, r4
 185 001e 03F8080C 		strb	r0, [r3, #-8]
 243:main.c        ****             xSemaphoreGive(labMutex);
 186              		.loc 1 243 0 discriminator 3
 187 0022 0023     		movs	r3, #0
 188 0024 1A46     		mov	r2, r3
 189 0026 1946     		mov	r1, r3
 190 0028 2868     		ldr	r0, [r5]
 191 002a FFF7FEFF 		bl	xQueueGenericSend
 192              	.LVL12:
 239:main.c        ****         {//produce 5pills at a time
 193              		.loc 1 239 0 discriminator 3
 194 002e 0134     		adds	r4, r4, #1
 195              	.LVL13:
 196 0030 E4B2     		uxtb	r4, r4
 197              	.LVL14:
 198              	.L15:
 239:main.c        ****         {//produce 5pills at a time
 199              		.loc 1 239 0 is_stmt 0 discriminator 1
 200 0032 042C     		cmp	r4, #4
 201 0034 E8D9     		bls	.L16
 202 0036 0024     		movs	r4, #0
 203              	.LVL15:
 204 0038 22E0     		b	.L17
 205              	.LVL16:
 206              	.L20:
 244:main.c        ****         }
 245:main.c        ****         
 246:main.c        ****         for(i=0; i<5; i++)
 247:main.c        ****         {//ship the 5pills at a time
 248:main.c        ****             if(getVaccineCntr()>=100 || getPopulationCntr()==0)
ARM GAS  C:\Users\IEUser\AppData\Local\Temp\ccz6QT8i.s 			page 9


 207              		.loc 1 248 0 is_stmt 1
 208 003a FFF7FEFF 		bl	getVaccineCntr
 209              	.LVL17:
 210 003e 6328     		cmp	r0, #99
 211 0040 02D8     		bhi	.L18
 212              		.loc 1 248 0 is_stmt 0 discriminator 1
 213 0042 FFF7FEFF 		bl	getPopulationCntr
 214              	.LVL18:
 215 0046 98B9     		cbnz	r0, .L19
 216              	.L18:
 249:main.c        ****             {//end game so terminate the tasks
 250:main.c        ****                 vTaskDelete(vaccineProducerHandler);
 217              		.loc 1 250 0 is_stmt 1
 218 0048 104B     		ldr	r3, .L23+4
 219 004a 1868     		ldr	r0, [r3]
 220 004c FFF7FEFF 		bl	vTaskDelete
 221              	.LVL19:
 251:main.c        ****                 vTaskDelete(quarantineHandler);
 222              		.loc 1 251 0
 223 0050 0F4B     		ldr	r3, .L23+8
 224 0052 1868     		ldr	r0, [r3]
 225 0054 FFF7FEFF 		bl	vTaskDelete
 226              	.LVL20:
 252:main.c        ****                 vTaskDelete(screenUpdateHandler);
 227              		.loc 1 252 0
 228 0058 0E4B     		ldr	r3, .L23+12
 229 005a 1868     		ldr	r0, [r3]
 230 005c FFF7FEFF 		bl	vTaskDelete
 231              	.LVL21:
 253:main.c        ****                 vTaskDelete(gameHandler);
 232              		.loc 1 253 0
 233 0060 0D4B     		ldr	r3, .L23+16
 234 0062 1868     		ldr	r0, [r3]
 235 0064 FFF7FEFF 		bl	vTaskDelete
 236              	.LVL22:
 254:main.c        ****                 vTaskDelete(medicineProducerHandler);
 237              		.loc 1 254 0
 238 0068 0C4B     		ldr	r3, .L23+20
 239 006a 1868     		ldr	r0, [r3]
 240 006c FFF7FEFF 		bl	vTaskDelete
 241              	.LVL23:
 242              	.L19:
 255:main.c        ****             }
 256:main.c        ****             shipMedicine(medicine[i]);
 243              		.loc 1 256 0 discriminator 2
 244 0070 02AB     		add	r3, sp, #8
 245 0072 2344     		add	r3, r3, r4
 246 0074 13F8080C 		ldrb	r0, [r3, #-8]	@ zero_extendqisi2
 247 0078 FFF7FEFF 		bl	shipMedicine
 248              	.LVL24:
 246:main.c        ****         {//ship the 5pills at a time
 249              		.loc 1 246 0 discriminator 2
 250 007c 0134     		adds	r4, r4, #1
 251              	.LVL25:
 252 007e E4B2     		uxtb	r4, r4
 253              	.LVL26:
 254              	.L17:
ARM GAS  C:\Users\IEUser\AppData\Local\Temp\ccz6QT8i.s 			page 10


 246:main.c        ****         {//ship the 5pills at a time
 255              		.loc 1 246 0 is_stmt 0 discriminator 1
 256 0080 042C     		cmp	r4, #4
 257 0082 DAD9     		bls	.L20
 258 0084 BEE7     		b	.L21
 259              	.L24:
 260 0086 00BF     		.align	2
 261              	.L23:
 262 0088 00000000 		.word	labMutex
 263 008c 00000000 		.word	vaccineProducerHandler
 264 0090 00000000 		.word	quarantineHandler
 265 0094 00000000 		.word	screenUpdateHandler
 266 0098 00000000 		.word	gameHandler
 267 009c 00000000 		.word	medicineProducerHandler
 268              		.cfi_endproc
 269              	.LFE79:
 270              		.size	medicineProducerTask, .-medicineProducerTask
 271              		.section	.text.main,"ax",%progbits
 272              		.align	2
 273              		.global	main
 274              		.thumb
 275              		.thumb_func
 276              		.type	main, %function
 277              	main:
 278              	.LFB68:
  63:main.c        ****     /* Enable global interrupts. */
 279              		.loc 1 63 0 is_stmt 1
 280              		.cfi_startproc
 281              		@ Volatile: function does not return.
 282              		@ args = 0, pretend = 0, frame = 0
 283              		@ frame_needed = 0, uses_anonymous_args = 0
 284 0000 00B5     		push	{lr}
 285              		.cfi_def_cfa_offset 4
 286              		.cfi_offset 14, -4
 287 0002 83B0     		sub	sp, sp, #12
 288              		.cfi_def_cfa_offset 16
  65:main.c        ****     
 289              		.loc 1 65 0
 290              		.syntax unified
 291              	@ 65 "main.c" 1
 292 0004 62B6     		CPSIE   i
 293              	@ 0 "" 2
  67:main.c        ****     
 294              		.loc 1 67 0
 295              		.thumb
 296              		.syntax unified
 297 0006 FFF7FEFF 		bl	freeRTOSInit
 298              	.LVL27:
  70:main.c        ****     KB_Start();
 299              		.loc 1 70 0
 300 000a FFF7FEFF 		bl	LCD_Start
 301              	.LVL28:
  71:main.c        ****     
 302              		.loc 1 71 0
 303 000e FFF7FEFF 		bl	KB_Start
 304              	.LVL29:
  74:main.c        ****     xTaskCreate( quarantineTask,QUARANTINE_TASK_NAME, TASK_STACK_SIZE, NULL, QUARANTINE_PRIORITY, &
ARM GAS  C:\Users\IEUser\AppData\Local\Temp\ccz6QT8i.s 			page 11


 305              		.loc 1 74 0
 306 0012 264B     		ldr	r3, .L28
 307 0014 0193     		str	r3, [sp, #4]
 308 0016 1423     		movs	r3, #20
 309 0018 0093     		str	r3, [sp]
 310 001a 0023     		movs	r3, #0
 311 001c 4FF48062 		mov	r2, #1024
 312 0020 2349     		ldr	r1, .L28+4
 313 0022 2448     		ldr	r0, .L28+8
 314 0024 FFF7FEFF 		bl	xTaskCreate
 315              	.LVL30:
  75:main.c        ****     xTaskCreate( vaccineProducerTask, VACCINE_PRODUCER_TASK_NAME, TASK_STACK_SIZE, NULL, VACCINE_PR
 316              		.loc 1 75 0
 317 0028 234B     		ldr	r3, .L28+12
 318 002a 0193     		str	r3, [sp, #4]
 319 002c 1223     		movs	r3, #18
 320 002e 0093     		str	r3, [sp]
 321 0030 0023     		movs	r3, #0
 322 0032 4FF48062 		mov	r2, #1024
 323 0036 2149     		ldr	r1, .L28+16
 324 0038 2148     		ldr	r0, .L28+20
 325 003a FFF7FEFF 		bl	xTaskCreate
 326              	.LVL31:
  76:main.c        ****     xTaskCreate( screenUpdateTask, SCREEN_UPDATE_TASK_NAME, TASK_STACK_SIZE, NULL, SCREEN_UPDATE_PR
 327              		.loc 1 76 0
 328 003e 214B     		ldr	r3, .L28+24
 329 0040 0193     		str	r3, [sp, #4]
 330 0042 0E23     		movs	r3, #14
 331 0044 0093     		str	r3, [sp]
 332 0046 0023     		movs	r3, #0
 333 0048 4FF48062 		mov	r2, #1024
 334 004c 1E49     		ldr	r1, .L28+28
 335 004e 1F48     		ldr	r0, .L28+32
 336 0050 FFF7FEFF 		bl	xTaskCreate
 337              	.LVL32:
  77:main.c        ****     xTaskCreate( medicineProducerTask, MEDICINE_PRODUCER_TASK_NAME, TASK_STACK_SIZE, NULL, MEDICINE
 338              		.loc 1 77 0
 339 0054 1E4B     		ldr	r3, .L28+36
 340 0056 0193     		str	r3, [sp, #4]
 341 0058 1023     		movs	r3, #16
 342 005a 0093     		str	r3, [sp]
 343 005c 0023     		movs	r3, #0
 344 005e 4FF48062 		mov	r2, #1024
 345 0062 1C49     		ldr	r1, .L28+40
 346 0064 1C48     		ldr	r0, .L28+44
 347 0066 FFF7FEFF 		bl	xTaskCreate
 348              	.LVL33:
  78:main.c        ****     
 349              		.loc 1 78 0
 350 006a 1C4B     		ldr	r3, .L28+48
 351 006c 0193     		str	r3, [sp, #4]
 352 006e 0C23     		movs	r3, #12
 353 0070 0093     		str	r3, [sp]
 354 0072 0023     		movs	r3, #0
 355 0074 4FF48062 		mov	r2, #1024
 356 0078 1949     		ldr	r1, .L28+52
 357 007a 1A48     		ldr	r0, .L28+56
ARM GAS  C:\Users\IEUser\AppData\Local\Temp\ccz6QT8i.s 			page 12


 358 007c FFF7FEFF 		bl	xTaskCreate
 359              	.LVL34:
  80:main.c        ****     labMutex = xSemaphoreCreateMutex();
 360              		.loc 1 80 0
 361 0080 0322     		movs	r2, #3
 362 0082 0021     		movs	r1, #0
 363 0084 0120     		movs	r0, #1
 364 0086 FFF7FEFF 		bl	xQueueGenericCreate
 365              	.LVL35:
 366 008a 174B     		ldr	r3, .L28+60
 367 008c 1860     		str	r0, [r3]
  81:main.c        ****     clueQueue = xQueueCreate(1, sizeof(Token));
 368              		.loc 1 81 0
 369 008e 0120     		movs	r0, #1
 370 0090 FFF7FEFF 		bl	xQueueCreateMutex
 371              	.LVL36:
 372 0094 154B     		ldr	r3, .L28+64
 373 0096 1860     		str	r0, [r3]
  82:main.c        **** 
 374              		.loc 1 82 0
 375 0098 0022     		movs	r2, #0
 376 009a 0121     		movs	r1, #1
 377 009c 0846     		mov	r0, r1
 378 009e FFF7FEFF 		bl	xQueueGenericCreate
 379              	.LVL37:
 380 00a2 134B     		ldr	r3, .L28+68
 381 00a4 1860     		str	r0, [r3]
  85:main.c        ****     
 382              		.loc 1 85 0
 383 00a6 FFF7FEFF 		bl	vTaskStartScheduler
 384              	.LVL38:
 385              	.L26:
 386 00aa FEE7     		b	.L26
 387              	.L29:
 388              		.align	2
 389              	.L28:
 390 00ac 00000000 		.word	gameHandler
 391 00b0 00000000 		.word	.LC0
 392 00b4 00000000 		.word	gameTask
 393 00b8 00000000 		.word	quarantineHandler
 394 00bc 0C000000 		.word	.LC1
 395 00c0 00000000 		.word	quarantineTask
 396 00c4 00000000 		.word	vaccineProducerHandler
 397 00c8 1C000000 		.word	.LC2
 398 00cc 00000000 		.word	vaccineProducerTask
 399 00d0 00000000 		.word	screenUpdateHandler
 400 00d4 34000000 		.word	.LC3
 401 00d8 00000000 		.word	screenUpdateTask
 402 00dc 00000000 		.word	medicineProducerHandler
 403 00e0 48000000 		.word	.LC4
 404 00e4 00000000 		.word	medicineProducerTask
 405 00e8 00000000 		.word	contaminationSemaphore
 406 00ec 00000000 		.word	labMutex
 407 00f0 00000000 		.word	clueQueue
 408              		.cfi_endproc
 409              	.LFE68:
 410              		.size	main, .-main
ARM GAS  C:\Users\IEUser\AppData\Local\Temp\ccz6QT8i.s 			page 13


 411              		.section	.text.releaseContamination,"ax",%progbits
 412              		.align	2
 413              		.global	releaseContamination
 414              		.thumb
 415              		.thumb_func
 416              		.type	releaseContamination, %function
 417              	releaseContamination:
 418              	.LFB70:
 111:main.c        ****     xSemaphoreGive(contaminationSemaphore);
 419              		.loc 1 111 0
 420              		.cfi_startproc
 421              		@ args = 0, pretend = 0, frame = 0
 422              		@ frame_needed = 0, uses_anonymous_args = 0
 423 0000 08B5     		push	{r3, lr}
 424              		.cfi_def_cfa_offset 8
 425              		.cfi_offset 3, -8
 426              		.cfi_offset 14, -4
 112:main.c        **** }
 427              		.loc 1 112 0
 428 0002 0023     		movs	r3, #0
 429 0004 1A46     		mov	r2, r3
 430 0006 1946     		mov	r1, r3
 431 0008 0248     		ldr	r0, .L32
 432 000a 0068     		ldr	r0, [r0]
 433 000c FFF7FEFF 		bl	xQueueGenericSend
 434              	.LVL39:
 435 0010 08BD     		pop	{r3, pc}
 436              	.L33:
 437 0012 00BF     		.align	2
 438              	.L32:
 439 0014 00000000 		.word	contaminationSemaphore
 440              		.cfi_endproc
 441              	.LFE70:
 442              		.size	releaseContamination, .-releaseContamination
 443              		.section	.text.releaseClue,"ax",%progbits
 444              		.align	2
 445              		.global	releaseClue
 446              		.thumb
 447              		.thumb_func
 448              		.type	releaseClue, %function
 449              	releaseClue:
 450              	.LFB71:
 120:main.c        ****     xQueueSendToBack(clueQueue, (void*)&clue, 0);
 451              		.loc 1 120 0
 452              		.cfi_startproc
 453              		@ args = 0, pretend = 0, frame = 8
 454              		@ frame_needed = 0, uses_anonymous_args = 0
 455              	.LVL40:
 456 0000 00B5     		push	{lr}
 457              		.cfi_def_cfa_offset 4
 458              		.cfi_offset 14, -4
 459 0002 83B0     		sub	sp, sp, #12
 460              		.cfi_def_cfa_offset 16
 461 0004 02A9     		add	r1, sp, #8
 462 0006 01F8010D 		strb	r0, [r1, #-1]!
 121:main.c        **** }
 463              		.loc 1 121 0
ARM GAS  C:\Users\IEUser\AppData\Local\Temp\ccz6QT8i.s 			page 14


 464 000a 0023     		movs	r3, #0
 465 000c 1A46     		mov	r2, r3
 466 000e 0348     		ldr	r0, .L36
 467              	.LVL41:
 468 0010 0068     		ldr	r0, [r0]
 469 0012 FFF7FEFF 		bl	xQueueGenericSend
 470              	.LVL42:
 122:main.c        **** 
 471              		.loc 1 122 0
 472 0016 03B0     		add	sp, sp, #12
 473              		.cfi_def_cfa_offset 4
 474              		@ sp needed
 475 0018 5DF804FB 		ldr	pc, [sp], #4
 476              	.LVL43:
 477              	.L37:
 478              		.align	2
 479              	.L36:
 480 001c 00000000 		.word	clueQueue
 481              		.cfi_endproc
 482              	.LFE71:
 483              		.size	releaseClue, .-releaseClue
 484              		.section	.text.putSpaceOnLCD,"ax",%progbits
 485              		.align	2
 486              		.global	putSpaceOnLCD
 487              		.thumb
 488              		.thumb_func
 489              		.type	putSpaceOnLCD, %function
 490              	putSpaceOnLCD:
 491              	.LFB76:
 199:main.c        ****     LCD_Position(0u, position);
 492              		.loc 1 199 0
 493              		.cfi_startproc
 494              		@ args = 0, pretend = 0, frame = 0
 495              		@ frame_needed = 0, uses_anonymous_args = 0
 496              	.LVL44:
 497 0000 08B5     		push	{r3, lr}
 498              		.cfi_def_cfa_offset 8
 499              		.cfi_offset 3, -8
 500              		.cfi_offset 14, -4
 200:main.c        ****     LCD_PutChar(' ');
 501              		.loc 1 200 0
 502 0002 0146     		mov	r1, r0
 503 0004 0020     		movs	r0, #0
 504              	.LVL45:
 505 0006 FFF7FEFF 		bl	LCD_Position
 506              	.LVL46:
 201:main.c        **** }
 507              		.loc 1 201 0
 508 000a 2020     		movs	r0, #32
 509 000c FFF7FEFF 		bl	LCD_PutChar
 510              	.LVL47:
 511 0010 08BD     		pop	{r3, pc}
 512              		.cfi_endproc
 513              	.LFE76:
 514              		.size	putSpaceOnLCD, .-putSpaceOnLCD
 515 0012 00BF     		.section	.text.printCounter,"ax",%progbits
 516              		.align	2
ARM GAS  C:\Users\IEUser\AppData\Local\Temp\ccz6QT8i.s 			page 15


 517              		.global	printCounter
 518              		.thumb
 519              		.thumb_func
 520              		.type	printCounter, %function
 521              	printCounter:
 522              	.LFB77:
 209:main.c        ****     uint8_t i, start=2-charNbr;
 523              		.loc 1 209 0
 524              		.cfi_startproc
 525              		@ args = 0, pretend = 0, frame = 0
 526              		@ frame_needed = 0, uses_anonymous_args = 0
 527              	.LVL48:
 528 0000 2DE9F041 		push	{r4, r5, r6, r7, r8, lr}
 529              		.cfi_def_cfa_offset 24
 530              		.cfi_offset 4, -24
 531              		.cfi_offset 5, -20
 532              		.cfi_offset 6, -16
 533              		.cfi_offset 7, -12
 534              		.cfi_offset 8, -8
 535              		.cfi_offset 14, -4
 536 0004 8046     		mov	r8, r0
 537 0006 0F46     		mov	r7, r1
 538 0008 1646     		mov	r6, r2
 210:main.c        ****     for(i=0 ; i<charNbr+1; i++)
 539              		.loc 1 210 0
 540 000a C2F10205 		rsb	r5, r2, #2
 541 000e EDB2     		uxtb	r5, r5
 542              	.LVL49:
 211:main.c        ****     {
 543              		.loc 1 211 0
 544 0010 0024     		movs	r4, #0
 545 0012 0BE0     		b	.L41
 546              	.LVL50:
 547              	.L42:
 213:main.c        ****         LCD_PutChar(numberAsChar[start+i]);
 548              		.loc 1 213 0 discriminator 3
 549 0014 E119     		adds	r1, r4, r7
 550 0016 C9B2     		uxtb	r1, r1
 551 0018 0020     		movs	r0, #0
 552 001a FFF7FEFF 		bl	LCD_Position
 553              	.LVL51:
 214:main.c        ****     }
 554              		.loc 1 214 0 discriminator 3
 555 001e 2B19     		adds	r3, r5, r4
 556 0020 18F80300 		ldrb	r0, [r8, r3]	@ zero_extendqisi2
 557 0024 FFF7FEFF 		bl	LCD_PutChar
 558              	.LVL52:
 211:main.c        ****     {
 559              		.loc 1 211 0 discriminator 3
 560 0028 0134     		adds	r4, r4, #1
 561              	.LVL53:
 562 002a E4B2     		uxtb	r4, r4
 563              	.LVL54:
 564              	.L41:
 211:main.c        ****     {
 565              		.loc 1 211 0 is_stmt 0 discriminator 1
 566 002c 731C     		adds	r3, r6, #1
ARM GAS  C:\Users\IEUser\AppData\Local\Temp\ccz6QT8i.s 			page 16


 567 002e 9C42     		cmp	r4, r3
 568 0030 F0DB     		blt	.L42
 216:main.c        **** 
 569              		.loc 1 216 0 is_stmt 1
 570 0032 BDE8F081 		pop	{r4, r5, r6, r7, r8, pc}
 571              		.cfi_endproc
 572              	.LFE77:
 573              		.size	printCounter, .-printCounter
 574 0036 00BF     		.section	.text.convertPercentage,"ax",%progbits
 575              		.align	2
 576              		.global	convertPercentage
 577              		.thumb
 578              		.thumb_func
 579              		.type	convertPercentage, %function
 580              	convertPercentage:
 581              	.LFB78:
 223:main.c        ****     numberAsChar[0] = number/100+'0'; //hundreds
 582              		.loc 1 223 0
 583              		.cfi_startproc
 584              		@ args = 0, pretend = 0, frame = 0
 585              		@ frame_needed = 0, uses_anonymous_args = 0
 586              	.LVL55:
 587 0000 00B5     		push	{lr}
 588              		.cfi_def_cfa_offset 4
 589              		.cfi_offset 14, -4
 224:main.c        ****     numberAsChar[1] = (number%100)/10+'0'; //dozens
 590              		.loc 1 224 0
 591 0002 0E4B     		ldr	r3, .L46
 592 0004 A3FB0023 		umull	r2, r3, r3, r0
 593 0008 5B09     		lsrs	r3, r3, #5
 594 000a 03F13002 		add	r2, r3, #48
 595 000e 0A70     		strb	r2, [r1]
 225:main.c        ****     numberAsChar[2] = number%10+'0'; //unit
 596              		.loc 1 225 0
 597 0010 6422     		movs	r2, #100
 598 0012 02FB1303 		mls	r3, r2, r3, r0
 599 0016 DBB2     		uxtb	r3, r3
 600 0018 094A     		ldr	r2, .L46+4
 601 001a A2FB03E3 		umull	lr, r3, r2, r3
 602 001e DB08     		lsrs	r3, r3, #3
 603 0020 3033     		adds	r3, r3, #48
 604 0022 4B70     		strb	r3, [r1, #1]
 226:main.c        **** }
 605              		.loc 1 226 0
 606 0024 A2FB0023 		umull	r2, r3, r2, r0
 607 0028 DB08     		lsrs	r3, r3, #3
 608 002a 03EB8303 		add	r3, r3, r3, lsl #2
 609 002e 5A00     		lsls	r2, r3, #1
 610 0030 801A     		subs	r0, r0, r2
 611              	.LVL56:
 612 0032 3030     		adds	r0, r0, #48
 613 0034 8870     		strb	r0, [r1, #2]
 614 0036 5DF804FB 		ldr	pc, [sp], #4
 615              	.L47:
 616 003a 00BF     		.align	2
 617              	.L46:
 618 003c 1F85EB51 		.word	1374389535
ARM GAS  C:\Users\IEUser\AppData\Local\Temp\ccz6QT8i.s 			page 17


 619 0040 CDCCCCCC 		.word	-858993459
 620              		.cfi_endproc
 621              	.LFE78:
 622              		.size	convertPercentage, .-convertPercentage
 623              		.section	.text.putCntrOnLCD,"ax",%progbits
 624              		.align	2
 625              		.global	putCntrOnLCD
 626              		.thumb
 627              		.thumb_func
 628              		.type	putCntrOnLCD, %function
 629              	putCntrOnLCD:
 630              	.LFB75:
 180:main.c        ****     char numberAsChar[3];
 631              		.loc 1 180 0
 632              		.cfi_startproc
 633              		@ args = 0, pretend = 0, frame = 8
 634              		@ frame_needed = 0, uses_anonymous_args = 0
 635              	.LVL57:
 636 0000 30B5     		push	{r4, r5, lr}
 637              		.cfi_def_cfa_offset 12
 638              		.cfi_offset 4, -12
 639              		.cfi_offset 5, -8
 640              		.cfi_offset 14, -4
 641 0002 83B0     		sub	sp, sp, #12
 642              		.cfi_def_cfa_offset 24
 643 0004 0546     		mov	r5, r0
 644 0006 0C46     		mov	r4, r1
 184:main.c        ****     if(cntr>=100) charNbr=2u;
 645              		.loc 1 184 0
 646 0008 01A9     		add	r1, sp, #4
 647              	.LVL58:
 648 000a FFF7FEFF 		bl	convertPercentage
 649              	.LVL59:
 185:main.c        ****     else if(cntr>=10) charNbr=1u;
 650              		.loc 1 185 0
 651 000e 632D     		cmp	r5, #99
 652 0010 03D8     		bhi	.L50
 186:main.c        ****     else charNbr=0u;
 653              		.loc 1 186 0
 654 0012 092D     		cmp	r5, #9
 655 0014 03D9     		bls	.L51
 656 0016 0125     		movs	r5, #1
 657 0018 02E0     		b	.L49
 658              	.L50:
 185:main.c        ****     else if(cntr>=10) charNbr=1u;
 659              		.loc 1 185 0
 660 001a 0225     		movs	r5, #2
 661 001c 00E0     		b	.L49
 662              	.L51:
 187:main.c        ****     printCounter(numberAsChar, *position, charNbr);
 663              		.loc 1 187 0
 664 001e 0025     		movs	r5, #0
 665              	.L49:
 666              	.LVL60:
 188:main.c        ****     *position += charNbr+1;
 667              		.loc 1 188 0
 668 0020 2A46     		mov	r2, r5
ARM GAS  C:\Users\IEUser\AppData\Local\Temp\ccz6QT8i.s 			page 18


 669 0022 2178     		ldrb	r1, [r4]	@ zero_extendqisi2
 670 0024 01A8     		add	r0, sp, #4
 671 0026 FFF7FEFF 		bl	printCounter
 672              	.LVL61:
 189:main.c        ****     putSpaceOnLCD(*position); //put space
 673              		.loc 1 189 0
 674 002a 2078     		ldrb	r0, [r4]	@ zero_extendqisi2
 675 002c 2844     		add	r0, r0, r5
 676 002e 0130     		adds	r0, r0, #1
 677 0030 C0B2     		uxtb	r0, r0
 678 0032 2070     		strb	r0, [r4]
 190:main.c        ****     (*position)++;
 679              		.loc 1 190 0
 680 0034 FFF7FEFF 		bl	putSpaceOnLCD
 681              	.LVL62:
 191:main.c        **** }
 682              		.loc 1 191 0
 683 0038 2378     		ldrb	r3, [r4]	@ zero_extendqisi2
 684 003a 0133     		adds	r3, r3, #1
 685 003c 2370     		strb	r3, [r4]
 192:main.c        **** 
 686              		.loc 1 192 0
 687 003e 03B0     		add	sp, sp, #12
 688              		.cfi_def_cfa_offset 12
 689              		@ sp needed
 690 0040 30BD     		pop	{r4, r5, pc}
 691              		.cfi_endproc
 692              	.LFE75:
 693              		.size	putCntrOnLCD, .-putCntrOnLCD
 694 0042 00BF     		.section	.text.screenUpdateTask,"ax",%progbits
 695              		.align	2
 696              		.global	screenUpdateTask
 697              		.thumb
 698              		.thumb_func
 699              		.type	screenUpdateTask, %function
 700              	screenUpdateTask:
 701              	.LFB74:
 159:main.c        ****     
 702              		.loc 1 159 0
 703              		.cfi_startproc
 704              		@ args = 0, pretend = 0, frame = 8
 705              		@ frame_needed = 0, uses_anonymous_args = 0
 706 0000 10B5     		push	{r4, lr}
 707              		.cfi_def_cfa_offset 8
 708              		.cfi_offset 4, -8
 709              		.cfi_offset 14, -4
 710 0002 82B0     		sub	sp, sp, #8
 711              		.cfi_def_cfa_offset 16
 712              	.L54:
 164:main.c        ****         
 713              		.loc 1 164 0 discriminator 1
 714 0004 02AC     		add	r4, sp, #8
 715 0006 0023     		movs	r3, #0
 716 0008 04F8013D 		strb	r3, [r4, #-1]!
 167:main.c        ****         putCntrOnLCD(getVaccineCntr(), &position);
 717              		.loc 1 167 0 discriminator 1
 718 000c FFF7FEFF 		bl	getPopulationCntr
ARM GAS  C:\Users\IEUser\AppData\Local\Temp\ccz6QT8i.s 			page 19


 719              	.LVL63:
 720 0010 2146     		mov	r1, r4
 721 0012 FFF7FEFF 		bl	putCntrOnLCD
 722              	.LVL64:
 168:main.c        ****         putCntrOnLCD(getMedicineCntr(), &position);
 723              		.loc 1 168 0 discriminator 1
 724 0016 FFF7FEFF 		bl	getVaccineCntr
 725              	.LVL65:
 726 001a 2146     		mov	r1, r4
 727 001c FFF7FEFF 		bl	putCntrOnLCD
 728              	.LVL66:
 169:main.c        ****         
 729              		.loc 1 169 0 discriminator 1
 730 0020 FFF7FEFF 		bl	getMedicineCntr
 731              	.LVL67:
 732 0024 2146     		mov	r1, r4
 733 0026 FFF7FEFF 		bl	putCntrOnLCD
 734              	.LVL68:
 171:main.c        ****     }
 735              		.loc 1 171 0 discriminator 1
 736 002a C820     		movs	r0, #200
 737 002c FFF7FEFF 		bl	vTaskDelay
 738              	.LVL69:
 739 0030 E8E7     		b	.L54
 740              		.cfi_endproc
 741              	.LFE74:
 742              		.size	screenUpdateTask, .-screenUpdateTask
 743              		.comm	medicineProducerHandler,4,4
 744              		.comm	screenUpdateHandler,4,4
 745              		.comm	vaccineProducerHandler,4,4
 746              		.comm	quarantineHandler,4,4
 747              		.comm	gameHandler,4,4
 748              		.comm	clueQueue,4,4
 749              		.comm	contaminationSemaphore,4,4
 750              		.comm	labMutex,4,4
 751 0032 00BF     		.section	.rodata.str1.4,"aMS",%progbits,1
 752              		.align	2
 753              	.LC0:
 754 0000 67616D65 		.ascii	"game_task\000"
 754      5F746173 
 754      6B00
 755 000a 0000     		.space	2
 756              	.LC1:
 757 000c 71756172 		.ascii	"quarantine_task\000"
 757      616E7469 
 757      6E655F74 
 757      61736B00 
 758              	.LC2:
 759 001c 76616363 		.ascii	"vaccine_producer_task\000"
 759      696E655F 
 759      70726F64 
 759      75636572 
 759      5F746173 
 760 0032 0000     		.space	2
 761              	.LC3:
 762 0034 73637265 		.ascii	"screen_update_task\000"
 762      656E5F75 
ARM GAS  C:\Users\IEUser\AppData\Local\Temp\ccz6QT8i.s 			page 20


 762      70646174 
 762      655F7461 
 762      736B00
 763 0047 00       		.space	1
 764              	.LC4:
 765 0048 6D656469 		.ascii	"medicine_producer_task\000"
 765      63696E65 
 765      5F70726F 
 765      64756365 
 765      725F7461 
 766              		.text
 767              	.Letext0:
 768              		.file 2 "c:\\program files (x86)\\cypress\\psoc creator\\4.3\\psoc creator\\import\\gnu\\arm\\5.4.
 769              		.file 3 "c:\\program files (x86)\\cypress\\psoc creator\\4.3\\psoc creator\\import\\gnu\\arm\\5.4.
 770              		.file 4 "Generated_Source\\PSoC5/cytypes.h"
 771              		.file 5 ".\\FreeRTOS\\include/portmacro.h"
 772              		.file 6 ".\\FreeRTOS\\include/task.h"
 773              		.file 7 ".\\FreeRTOS\\include/queue.h"
 774              		.file 8 ".\\FreeRTOS\\include/semphr.h"
 775              		.file 9 "pandemic.h"
 776              		.file 10 "Generated_Source\\PSoC5/core_cm3.h"
 777              		.file 11 "Generated_Source\\PSoC5/LCD.h"
 778              		.file 12 "Generated_Source\\PSoC5/KB_keyboard.h"