ARM GAS  C:\Users\IEUser\AppData\Local\Temp\ccsXO7e1.s 			page 1


   1              		.syntax unified
   2              		.cpu cortex-m3
   3              		.fpu softvfp
   4              		.eabi_attribute 20, 1
   5              		.eabi_attribute 21, 1
   6              		.eabi_attribute 23, 3
   7              		.eabi_attribute 24, 1
   8              		.eabi_attribute 25, 1
   9              		.eabi_attribute 26, 1
  10              		.eabi_attribute 30, 1
  11              		.eabi_attribute 34, 1
  12              		.eabi_attribute 18, 4
  13              		.thumb
  14              		.syntax unified
  15              		.file	"pandemic.c"
  16              		.text
  17              	.Ltext0:
  18              		.cfi_sections	.debug_frame
  19              		.section	.text.deadlineContamination,"ax",%progbits
  20              		.align	2
  21              		.global	deadlineContamination
  22              		.thumb
  23              		.thumb_func
  24              		.type	deadlineContamination, %function
  25              	deadlineContamination:
  26              	.LFB74:
  27              		.file 1 "pandemic.c"
   1:pandemic.c    **** /* ========================================
   2:pandemic.c    ****  *
   3:pandemic.c    ****  *              ELECH410 labs
   4:pandemic.c    ****  *          FreeRTOS pandemic project
   5:pandemic.c    ****  * 
   6:pandemic.c    ****  *                   2020
   7:pandemic.c    ****  *
   8:pandemic.c    ****  * ========================================
   9:pandemic.c    **** */
  10:pandemic.c    **** 
  11:pandemic.c    **** #include <stdlib.h>
  12:pandemic.c    **** 
  13:pandemic.c    **** #include "FreeRTOS.h"
  14:pandemic.c    **** #include "task.h"
  15:pandemic.c    **** #include "timers.h"
  16:pandemic.c    **** #include "semphr.h"
  17:pandemic.c    **** 
  18:pandemic.c    **** #include "pandemic.h"
  19:pandemic.c    **** 
  20:pandemic.c    **** #define GAME_PERIOD              (10u) // in ms
  21:pandemic.c    **** #define CONTAMINATION_DEADLINE   (10u) // in ms
  22:pandemic.c    **** #define CONTAMINATION_PERIOD_MAX (300u) // in 10ms
  23:pandemic.c    **** #define CONTAMINATION_PERIOD_MIN (50u) // in 10ms
  24:pandemic.c    **** #define CLUE_PERIOD              (300u) // in 10ms
  25:pandemic.c    **** #define VIRUS_PERIOD             (500u) // in 10ms
  26:pandemic.c    **** #define VACCINE_DELAY            (2500u) // in ms
  27:pandemic.c    **** #define MEDICINE_DELAY           (500u) // in ms
  28:pandemic.c    **** #define SHIP_MEDICINE_DELAY      (500u) // in ms
  29:pandemic.c    **** #define CONTAMINATION_STRENGTH   (20u) //in %
  30:pandemic.c    **** #define VIRUS_SPREAD_STRENGTH    (5u) //in %
ARM GAS  C:\Users\IEUser\AppData\Local\Temp\ccsXO7e1.s 			page 2


  31:pandemic.c    **** #define VACCINE_STRENGTH         (3u) //in %
  32:pandemic.c    **** 
  33:pandemic.c    **** enum status_e {
  34:pandemic.c    ****     IN_QUARANTINE,
  35:pandemic.c    ****     NO_QUARANTINE,
  36:pandemic.c    **** };
  37:pandemic.c    **** 
  38:pandemic.c    **** /* Game variables */
  39:pandemic.c    **** uint8 populationCntr = 100u;
  40:pandemic.c    **** uint8 vaccineCntr = 0u;
  41:pandemic.c    **** uint8 medicineCntr = 0u;
  42:pandemic.c    **** 
  43:pandemic.c    **** uint8 quarantineStatus = NO_QUARANTINE;
  44:pandemic.c    **** uint16 contaminationPeriod = CONTAMINATION_PERIOD_MIN;
  45:pandemic.c    **** uint16 cluePeriod = CLUE_PERIOD;
  46:pandemic.c    **** uint16 virusPeriod = VIRUS_PERIOD;
  47:pandemic.c    **** 
  48:pandemic.c    **** Token missionCpy;
  49:pandemic.c    **** Token clue;
  50:pandemic.c    **** 
  51:pandemic.c    **** /* Mutex */
  52:pandemic.c    **** SemaphoreHandle_t quarantineMutex;
  53:pandemic.c    **** 
  54:pandemic.c    **** /* Timer */
  55:pandemic.c    **** TimerHandle_t contaminationHandler;
  56:pandemic.c    **** void deadlineContamination();
  57:pandemic.c    **** 
  58:pandemic.c    **** /* Function prototype */
  59:pandemic.c    **** void startContamination(void);
  60:pandemic.c    **** uint8_t encode(uint8_t);
  61:pandemic.c    **** 
  62:pandemic.c    **** void gameTask( void *arg ){
  63:pandemic.c    ****     (void) arg;
  64:pandemic.c    ****     
  65:pandemic.c    ****     uint8 medicineUsed;
  66:pandemic.c    ****     quarantineMutex = xSemaphoreCreateMutex();
  67:pandemic.c    **** 
  68:pandemic.c    ****     while(populationCntr > 0u && vaccineCntr < 100u)
  69:pandemic.c    ****     {
  70:pandemic.c    ****         contaminationPeriod--;
  71:pandemic.c    ****         cluePeriod--;
  72:pandemic.c    ****         virusPeriod--;
  73:pandemic.c    ****         
  74:pandemic.c    ****         if(contaminationPeriod == 0u){
  75:pandemic.c    ****             contaminationPeriod = (rand() % (CONTAMINATION_PERIOD_MAX - CONTAMINATION_PERIOD_MIN)) 
  76:pandemic.c    ****             startContamination();
  77:pandemic.c    ****         }
  78:pandemic.c    ****         if (cluePeriod == 0u){
  79:pandemic.c    ****             cluePeriod = CLUE_PERIOD; 
  80:pandemic.c    **** 
  81:pandemic.c    ****             clue = rand() & 0xFF; // Returns a random integer between 0 and 255.
  82:pandemic.c    ****             clue = clue != 0u ? clue : 1u;
  83:pandemic.c    ****             
  84:pandemic.c    ****             releaseClue(clue);
  85:pandemic.c    ****         }if (virusPeriod == 0u){
  86:pandemic.c    ****             virusPeriod = VIRUS_PERIOD;
  87:pandemic.c    ****             
ARM GAS  C:\Users\IEUser\AppData\Local\Temp\ccsXO7e1.s 			page 3


  88:pandemic.c    ****             if (medicineCntr > VIRUS_SPREAD_STRENGTH ){
  89:pandemic.c    ****                 medicineUsed = VIRUS_SPREAD_STRENGTH;
  90:pandemic.c    ****             }else{
  91:pandemic.c    ****                 medicineUsed = medicineCntr;
  92:pandemic.c    ****             }
  93:pandemic.c    ****             populationCntr -= (VIRUS_SPREAD_STRENGTH - medicineUsed);
  94:pandemic.c    ****             medicineCntr -= medicineUsed;
  95:pandemic.c    ****         }
  96:pandemic.c    ****         
  97:pandemic.c    ****         vTaskDelay(GAME_PERIOD);
  98:pandemic.c    ****     }
  99:pandemic.c    ****     
 100:pandemic.c    ****     for(;;)
 101:pandemic.c    ****     {
 102:pandemic.c    ****         LCD_Position(1u, 0u);
 103:pandemic.c    ****         if (vaccineCntr >= 100u){
 104:pandemic.c    ****             LCD_PrintString("   WIN  ");
 105:pandemic.c    ****         }else{
 106:pandemic.c    ****             LCD_PrintString("  LOSE  ");
 107:pandemic.c    ****         }
 108:pandemic.c    ****         for (uint8 i = 0u; i < 5u; i++){
 109:pandemic.c    ****             LED1_Write(i == 0u ? 0u : 1u);
 110:pandemic.c    ****             LED2_Write(i == 1u ? 0u : 1u);
 111:pandemic.c    ****             LED3_Write(i == 2u ? 0u : 1u);
 112:pandemic.c    ****             LED4_Write(i == 3u ? 0u : 1u);
 113:pandemic.c    ****             vTaskDelay(75u);
 114:pandemic.c    ****         }
 115:pandemic.c    ****         vTaskDelay(500u);        
 116:pandemic.c    ****     }
 117:pandemic.c    **** }
 118:pandemic.c    **** 
 119:pandemic.c    **** void quarantine( void ){
 120:pandemic.c    ****     if(xQueuePeek((xQueueHandle)quarantineMutex, (void *)NULL, (portTickType)NULL) != pdTRUE){  
 121:pandemic.c    ****         /* You lose !
 122:pandemic.c    ****          * releaseContamination() called quarantine() or
 123:pandemic.c    ****          * one of your task has a higher priority than gameTask */
 124:pandemic.c    ****         populationCntr = 0u;  
 125:pandemic.c    ****     }else{
 126:pandemic.c    ****         quarantineStatus = IN_QUARANTINE;
 127:pandemic.c    ****     }  
 128:pandemic.c    **** }
 129:pandemic.c    **** 
 130:pandemic.c    **** Token assignMissionToLab( Token mission){
 131:pandemic.c    ****     Token result;
 132:pandemic.c    ****     
 133:pandemic.c    ****     missionCpy = mission;
 134:pandemic.c    ****     uint32 delay;
 135:pandemic.c    ****     
 136:pandemic.c    ****     /* Produce medicine pills */
 137:pandemic.c    ****     if (mission == 0u){
 138:pandemic.c    ****         delay = MEDICINE_DELAY;    
 139:pandemic.c    ****         result = 0u;
 140:pandemic.c    ****     
 141:pandemic.c    ****     /* Work on a vaccine */
 142:pandemic.c    ****     }else{
 143:pandemic.c    ****         delay = VACCINE_DELAY;
 144:pandemic.c    ****         result = encode(mission);
ARM GAS  C:\Users\IEUser\AppData\Local\Temp\ccsXO7e1.s 			page 4


 145:pandemic.c    ****     }
 146:pandemic.c    ****     
 147:pandemic.c    ****     CyDelay(delay); // CyDelay() doesn't suspend the task
 148:pandemic.c    ****     
 149:pandemic.c    ****     if (missionCpy != mission){
 150:pandemic.c    ****         /* You lose !
 151:pandemic.c    ****          * Don't forget to protect shared resources ! */
 152:pandemic.c    ****         populationCntr = 0u;
 153:pandemic.c    ****     }
 154:pandemic.c    ****     
 155:pandemic.c    ****     return result;
 156:pandemic.c    **** }
 157:pandemic.c    **** 
 158:pandemic.c    **** void shipMedicine( Token medicine){
 159:pandemic.c    ****     (void) medicine;
 160:pandemic.c    ****     
 161:pandemic.c    ****     CyDelay(SHIP_MEDICINE_DELAY); // CyDelay() doesn't suspend the task
 162:pandemic.c    ****     medicineCntr++;
 163:pandemic.c    **** }
 164:pandemic.c    **** 
 165:pandemic.c    **** void shipVaccine( Token vaccine){
 166:pandemic.c    ****     if (vaccine == encode(clue))
 167:pandemic.c    ****     {
 168:pandemic.c    ****         vaccineCntr += VACCINE_STRENGTH;    
 169:pandemic.c    ****     }
 170:pandemic.c    **** }
 171:pandemic.c    **** 
 172:pandemic.c    **** void startContamination(){
 173:pandemic.c    ****     contaminationHandler = xTimerCreate(
 174:pandemic.c    ****         "Contamination",
 175:pandemic.c    ****         CONTAMINATION_DEADLINE,
 176:pandemic.c    ****         pdFALSE,
 177:pandemic.c    ****         NULL,
 178:pandemic.c    ****         deadlineContamination
 179:pandemic.c    ****     );
 180:pandemic.c    ****     quarantineStatus = NO_QUARANTINE;
 181:pandemic.c    ****     
 182:pandemic.c    ****     xTimerStart( contaminationHandler, 0u );
 183:pandemic.c    ****     xSemaphoreTake( quarantineMutex, portMAX_DELAY );
 184:pandemic.c    ****     releaseContamination();
 185:pandemic.c    ****     xSemaphoreGive( quarantineMutex);
 186:pandemic.c    **** }
 187:pandemic.c    **** 
 188:pandemic.c    **** void deadlineContamination(){
  28              		.loc 1 188 0
  29              		.cfi_startproc
  30              		@ args = 0, pretend = 0, frame = 0
  31              		@ frame_needed = 0, uses_anonymous_args = 0
  32              		@ link register save eliminated.
 189:pandemic.c    ****     if (quarantineStatus == IN_QUARANTINE)
  33              		.loc 1 189 0
  34 0000 094B     		ldr	r3, .L5
  35 0002 1B78     		ldrb	r3, [r3]	@ zero_extendqisi2
  36 0004 1BB9     		cbnz	r3, .L2
 190:pandemic.c    ****     {
 191:pandemic.c    ****         quarantineStatus = NO_QUARANTINE; 
  37              		.loc 1 191 0
ARM GAS  C:\Users\IEUser\AppData\Local\Temp\ccsXO7e1.s 			page 5


  38 0006 0122     		movs	r2, #1
  39 0008 074B     		ldr	r3, .L5
  40 000a 1A70     		strb	r2, [r3]
  41 000c 7047     		bx	lr
  42              	.L2:
 192:pandemic.c    ****     }else{
 193:pandemic.c    ****         if (populationCntr > CONTAMINATION_STRENGTH){
  43              		.loc 1 193 0
  44 000e 064B     		ldr	r3, .L5
  45 0010 5B78     		ldrb	r3, [r3, #1]	@ zero_extendqisi2
  46 0012 142B     		cmp	r3, #20
  47 0014 03D9     		bls	.L4
 194:pandemic.c    ****              populationCntr -= CONTAMINATION_STRENGTH;
  48              		.loc 1 194 0
  49 0016 143B     		subs	r3, r3, #20
  50 0018 034A     		ldr	r2, .L5
  51 001a 5370     		strb	r3, [r2, #1]
  52 001c 7047     		bx	lr
  53              	.L4:
 195:pandemic.c    ****         }else{
 196:pandemic.c    ****             populationCntr = 0u;
  54              		.loc 1 196 0
  55 001e 0022     		movs	r2, #0
  56 0020 014B     		ldr	r3, .L5
  57 0022 5A70     		strb	r2, [r3, #1]
  58 0024 7047     		bx	lr
  59              	.L6:
  60 0026 00BF     		.align	2
  61              	.L5:
  62 0028 00000000 		.word	.LANCHOR0
  63              		.cfi_endproc
  64              	.LFE74:
  65              		.size	deadlineContamination, .-deadlineContamination
  66              		.section	.text.quarantine,"ax",%progbits
  67              		.align	2
  68              		.global	quarantine
  69              		.thumb
  70              		.thumb_func
  71              		.type	quarantine, %function
  72              	quarantine:
  73              	.LFB69:
 119:pandemic.c    ****     if(xQueuePeek((xQueueHandle)quarantineMutex, (void *)NULL, (portTickType)NULL) != pdTRUE){  
  74              		.loc 1 119 0
  75              		.cfi_startproc
  76              		@ args = 0, pretend = 0, frame = 0
  77              		@ frame_needed = 0, uses_anonymous_args = 0
  78 0000 08B5     		push	{r3, lr}
  79              		.cfi_def_cfa_offset 8
  80              		.cfi_offset 3, -8
  81              		.cfi_offset 14, -4
 120:pandemic.c    ****         /* You lose !
  82              		.loc 1 120 0
  83 0002 0022     		movs	r2, #0
  84 0004 1146     		mov	r1, r2
  85 0006 074B     		ldr	r3, .L11
  86 0008 1868     		ldr	r0, [r3]
  87 000a FFF7FEFF 		bl	xQueuePeek
ARM GAS  C:\Users\IEUser\AppData\Local\Temp\ccsXO7e1.s 			page 6


  88              	.LVL0:
  89 000e 0128     		cmp	r0, #1
  90 0010 03D0     		beq	.L8
 124:pandemic.c    ****     }else{
  91              		.loc 1 124 0
  92 0012 0022     		movs	r2, #0
  93 0014 044B     		ldr	r3, .L11+4
  94 0016 5A70     		strb	r2, [r3, #1]
  95 0018 08BD     		pop	{r3, pc}
  96              	.L8:
 126:pandemic.c    ****     }  
  97              		.loc 1 126 0
  98 001a 0022     		movs	r2, #0
  99 001c 024B     		ldr	r3, .L11+4
 100 001e 1A70     		strb	r2, [r3]
 101 0020 08BD     		pop	{r3, pc}
 102              	.L12:
 103 0022 00BF     		.align	2
 104              	.L11:
 105 0024 00000000 		.word	quarantineMutex
 106 0028 00000000 		.word	.LANCHOR0
 107              		.cfi_endproc
 108              	.LFE69:
 109              		.size	quarantine, .-quarantine
 110              		.section	.text.shipMedicine,"ax",%progbits
 111              		.align	2
 112              		.global	shipMedicine
 113              		.thumb
 114              		.thumb_func
 115              		.type	shipMedicine, %function
 116              	shipMedicine:
 117              	.LFB71:
 158:pandemic.c    ****     (void) medicine;
 118              		.loc 1 158 0
 119              		.cfi_startproc
 120              		@ args = 0, pretend = 0, frame = 0
 121              		@ frame_needed = 0, uses_anonymous_args = 0
 122              	.LVL1:
 123 0000 08B5     		push	{r3, lr}
 124              		.cfi_def_cfa_offset 8
 125              		.cfi_offset 3, -8
 126              		.cfi_offset 14, -4
 161:pandemic.c    ****     medicineCntr++;
 127              		.loc 1 161 0
 128 0002 4FF4FA70 		mov	r0, #500
 129              	.LVL2:
 130 0006 FFF7FEFF 		bl	CyDelay
 131              	.LVL3:
 162:pandemic.c    **** }
 132              		.loc 1 162 0
 133 000a 024A     		ldr	r2, .L15
 134 000c 1378     		ldrb	r3, [r2]	@ zero_extendqisi2
 135 000e 0133     		adds	r3, r3, #1
 136 0010 1370     		strb	r3, [r2]
 137 0012 08BD     		pop	{r3, pc}
 138              	.L16:
 139              		.align	2
ARM GAS  C:\Users\IEUser\AppData\Local\Temp\ccsXO7e1.s 			page 7


 140              	.L15:
 141 0014 00000000 		.word	.LANCHOR1
 142              		.cfi_endproc
 143              	.LFE71:
 144              		.size	shipMedicine, .-shipMedicine
 145              		.section	.text.startContamination,"ax",%progbits
 146              		.align	2
 147              		.global	startContamination
 148              		.thumb
 149              		.thumb_func
 150              		.type	startContamination, %function
 151              	startContamination:
 152              	.LFB73:
 172:pandemic.c    ****     contaminationHandler = xTimerCreate(
 153              		.loc 1 172 0
 154              		.cfi_startproc
 155              		@ args = 0, pretend = 0, frame = 0
 156              		@ frame_needed = 0, uses_anonymous_args = 0
 157 0000 70B5     		push	{r4, r5, r6, lr}
 158              		.cfi_def_cfa_offset 16
 159              		.cfi_offset 4, -16
 160              		.cfi_offset 5, -12
 161              		.cfi_offset 6, -8
 162              		.cfi_offset 14, -4
 163 0002 82B0     		sub	sp, sp, #8
 164              		.cfi_def_cfa_offset 24
 173:pandemic.c    ****         "Contamination",
 165              		.loc 1 173 0
 166 0004 134B     		ldr	r3, .L19
 167 0006 0093     		str	r3, [sp]
 168 0008 0023     		movs	r3, #0
 169 000a 1A46     		mov	r2, r3
 170 000c 0A21     		movs	r1, #10
 171 000e 1248     		ldr	r0, .L19+4
 172 0010 FFF7FEFF 		bl	xTimerCreate
 173              	.LVL4:
 174 0014 0546     		mov	r5, r0
 175 0016 114B     		ldr	r3, .L19+8
 176 0018 1860     		str	r0, [r3]
 180:pandemic.c    ****     
 177              		.loc 1 180 0
 178 001a 0126     		movs	r6, #1
 179 001c 104B     		ldr	r3, .L19+12
 180 001e 1E70     		strb	r6, [r3]
 182:pandemic.c    ****     xSemaphoreTake( quarantineMutex, portMAX_DELAY );
 181              		.loc 1 182 0
 182 0020 FFF7FEFF 		bl	xTaskGetTickCount
 183              	.LVL5:
 184 0024 0024     		movs	r4, #0
 185 0026 0094     		str	r4, [sp]
 186 0028 2346     		mov	r3, r4
 187 002a 0246     		mov	r2, r0
 188 002c 3146     		mov	r1, r6
 189 002e 2846     		mov	r0, r5
 190 0030 FFF7FEFF 		bl	xTimerGenericCommand
 191              	.LVL6:
 183:pandemic.c    ****     releaseContamination();
ARM GAS  C:\Users\IEUser\AppData\Local\Temp\ccsXO7e1.s 			page 8


 192              		.loc 1 183 0
 193 0034 0B4D     		ldr	r5, .L19+16
 194 0036 4FF0FF31 		mov	r1, #-1
 195 003a 2868     		ldr	r0, [r5]
 196 003c FFF7FEFF 		bl	xQueueSemaphoreTake
 197              	.LVL7:
 184:pandemic.c    ****     xSemaphoreGive( quarantineMutex);
 198              		.loc 1 184 0
 199 0040 FFF7FEFF 		bl	releaseContamination
 200              	.LVL8:
 185:pandemic.c    **** }
 201              		.loc 1 185 0
 202 0044 2346     		mov	r3, r4
 203 0046 2246     		mov	r2, r4
 204 0048 2146     		mov	r1, r4
 205 004a 2868     		ldr	r0, [r5]
 206 004c FFF7FEFF 		bl	xQueueGenericSend
 207              	.LVL9:
 186:pandemic.c    **** 
 208              		.loc 1 186 0
 209 0050 02B0     		add	sp, sp, #8
 210              		.cfi_def_cfa_offset 16
 211              		@ sp needed
 212 0052 70BD     		pop	{r4, r5, r6, pc}
 213              	.L20:
 214              		.align	2
 215              	.L19:
 216 0054 00000000 		.word	deadlineContamination
 217 0058 00000000 		.word	.LC0
 218 005c 00000000 		.word	contaminationHandler
 219 0060 00000000 		.word	.LANCHOR0
 220 0064 00000000 		.word	quarantineMutex
 221              		.cfi_endproc
 222              	.LFE73:
 223              		.size	startContamination, .-startContamination
 224              		.section	.text.gameTask,"ax",%progbits
 225              		.align	2
 226              		.global	gameTask
 227              		.thumb
 228              		.thumb_func
 229              		.type	gameTask, %function
 230              	gameTask:
 231              	.LFB68:
  62:pandemic.c    ****     (void) arg;
 232              		.loc 1 62 0
 233              		.cfi_startproc
 234              		@ args = 0, pretend = 0, frame = 0
 235              		@ frame_needed = 0, uses_anonymous_args = 0
 236              	.LVL10:
 237 0000 10B5     		push	{r4, lr}
 238              		.cfi_def_cfa_offset 8
 239              		.cfi_offset 4, -8
 240              		.cfi_offset 14, -4
  66:pandemic.c    **** 
 241              		.loc 1 66 0
 242 0002 0120     		movs	r0, #1
 243              	.LVL11:
ARM GAS  C:\Users\IEUser\AppData\Local\Temp\ccsXO7e1.s 			page 9


 244 0004 FFF7FEFF 		bl	xQueueCreateMutex
 245              	.LVL12:
 246 0008 3F4B     		ldr	r3, .L36
 247 000a 1860     		str	r0, [r3]
  68:pandemic.c    ****     {
 248              		.loc 1 68 0
 249 000c 42E0     		b	.L22
 250              	.L29:
  70:pandemic.c    ****         cluePeriod--;
 251              		.loc 1 70 0
 252 000e 3F4A     		ldr	r2, .L36+4
 253 0010 5388     		ldrh	r3, [r2, #2]
 254 0012 013B     		subs	r3, r3, #1
 255 0014 9BB2     		uxth	r3, r3
 256 0016 5380     		strh	r3, [r2, #2]	@ movhi
  71:pandemic.c    ****         virusPeriod--;
 257              		.loc 1 71 0
 258 0018 9188     		ldrh	r1, [r2, #4]
 259 001a 0139     		subs	r1, r1, #1
 260 001c 9180     		strh	r1, [r2, #4]	@ movhi
  72:pandemic.c    ****         
 261              		.loc 1 72 0
 262 001e D188     		ldrh	r1, [r2, #6]
 263 0020 0139     		subs	r1, r1, #1
 264 0022 D180     		strh	r1, [r2, #6]	@ movhi
  74:pandemic.c    ****             contaminationPeriod = (rand() % (CONTAMINATION_PERIOD_MAX - CONTAMINATION_PERIOD_MIN)) 
 265              		.loc 1 74 0
 266 0024 6BB9     		cbnz	r3, .L23
  75:pandemic.c    ****             startContamination();
 267              		.loc 1 75 0
 268 0026 FFF7FEFF 		bl	rand
 269              	.LVL13:
 270 002a 394B     		ldr	r3, .L36+8
 271 002c A3FB0023 		umull	r2, r3, r3, r0
 272 0030 1B09     		lsrs	r3, r3, #4
 273 0032 FA22     		movs	r2, #250
 274 0034 02FB1303 		mls	r3, r2, r3, r0
 275 0038 3233     		adds	r3, r3, #50
 276 003a 344A     		ldr	r2, .L36+4
 277 003c 5380     		strh	r3, [r2, #2]	@ movhi
  76:pandemic.c    ****         }
 278              		.loc 1 76 0
 279 003e FFF7FEFF 		bl	startContamination
 280              	.LVL14:
 281              	.L23:
  78:pandemic.c    ****             cluePeriod = CLUE_PERIOD; 
 282              		.loc 1 78 0
 283 0042 324B     		ldr	r3, .L36+4
 284 0044 9B88     		ldrh	r3, [r3, #4]
 285 0046 63B9     		cbnz	r3, .L24
  79:pandemic.c    **** 
 286              		.loc 1 79 0
 287 0048 4FF49672 		mov	r2, #300
 288 004c 2F4B     		ldr	r3, .L36+4
 289 004e 9A80     		strh	r2, [r3, #4]	@ movhi
  81:pandemic.c    ****             clue = clue != 0u ? clue : 1u;
 290              		.loc 1 81 0
ARM GAS  C:\Users\IEUser\AppData\Local\Temp\ccsXO7e1.s 			page 10


 291 0050 FFF7FEFF 		bl	rand
 292              	.LVL15:
 293 0054 C0B2     		uxtb	r0, r0
  82:pandemic.c    ****             
 294              		.loc 1 82 0
 295 0056 00B9     		cbnz	r0, .L25
 296 0058 0120     		movs	r0, #1
 297              	.L25:
  82:pandemic.c    ****             
 298              		.loc 1 82 0 is_stmt 0 discriminator 4
 299 005a 2E4B     		ldr	r3, .L36+12
 300 005c 1870     		strb	r0, [r3]
  84:pandemic.c    ****         }if (virusPeriod == 0u){
 301              		.loc 1 84 0 is_stmt 1 discriminator 4
 302 005e FFF7FEFF 		bl	releaseClue
 303              	.LVL16:
 304              	.L24:
  85:pandemic.c    ****             virusPeriod = VIRUS_PERIOD;
 305              		.loc 1 85 0
 306 0062 2A4B     		ldr	r3, .L36+4
 307 0064 DB88     		ldrh	r3, [r3, #6]
 308 0066 93B9     		cbnz	r3, .L26
  86:pandemic.c    ****             
 309              		.loc 1 86 0
 310 0068 4FF4FA72 		mov	r2, #500
 311 006c 274B     		ldr	r3, .L36+4
 312 006e DA80     		strh	r2, [r3, #6]	@ movhi
  88:pandemic.c    ****                 medicineUsed = VIRUS_SPREAD_STRENGTH;
 313              		.loc 1 88 0
 314 0070 294B     		ldr	r3, .L36+16
 315 0072 1B78     		ldrb	r3, [r3]	@ zero_extendqisi2
 316 0074 052B     		cmp	r3, #5
 317 0076 01D9     		bls	.L34
  89:pandemic.c    ****             }else{
 318              		.loc 1 89 0
 319 0078 0521     		movs	r1, #5
 320 007a 00E0     		b	.L27
 321              	.L34:
  91:pandemic.c    ****             }
 322              		.loc 1 91 0
 323 007c 1946     		mov	r1, r3
 324              	.L27:
 325              	.LVL17:
  93:pandemic.c    ****             medicineCntr -= medicineUsed;
 326              		.loc 1 93 0
 327 007e 2348     		ldr	r0, .L36+4
 328 0080 4278     		ldrb	r2, [r0, #1]	@ zero_extendqisi2
 329 0082 0A44     		add	r2, r2, r1
 330 0084 053A     		subs	r2, r2, #5
 331 0086 4270     		strb	r2, [r0, #1]
  94:pandemic.c    ****         }
 332              		.loc 1 94 0
 333 0088 5B1A     		subs	r3, r3, r1
 334 008a 234A     		ldr	r2, .L36+16
 335 008c 1370     		strb	r3, [r2]
 336              	.LVL18:
 337              	.L26:
ARM GAS  C:\Users\IEUser\AppData\Local\Temp\ccsXO7e1.s 			page 11


  97:pandemic.c    ****     }
 338              		.loc 1 97 0
 339 008e 0A20     		movs	r0, #10
 340 0090 FFF7FEFF 		bl	vTaskDelay
 341              	.LVL19:
 342              	.L22:
  68:pandemic.c    ****     {
 343              		.loc 1 68 0
 344 0094 1D4B     		ldr	r3, .L36+4
 345 0096 5B78     		ldrb	r3, [r3, #1]	@ zero_extendqisi2
 346 0098 1BB1     		cbz	r3, .L28
  68:pandemic.c    ****     {
 347              		.loc 1 68 0 is_stmt 0 discriminator 1
 348 009a 1F4B     		ldr	r3, .L36+16
 349 009c 5B78     		ldrb	r3, [r3, #1]	@ zero_extendqisi2
 350 009e 632B     		cmp	r3, #99
 351 00a0 B5D9     		bls	.L29
 352              	.L28:
 102:pandemic.c    ****         if (vaccineCntr >= 100u){
 353              		.loc 1 102 0 is_stmt 1
 354 00a2 0021     		movs	r1, #0
 355 00a4 0120     		movs	r0, #1
 356 00a6 FFF7FEFF 		bl	LCD_Position
 357              	.LVL20:
 103:pandemic.c    ****             LCD_PrintString("   WIN  ");
 358              		.loc 1 103 0
 359 00aa 1B4B     		ldr	r3, .L36+16
 360 00ac 5B78     		ldrb	r3, [r3, #1]	@ zero_extendqisi2
 361 00ae 632B     		cmp	r3, #99
 362 00b0 04D9     		bls	.L30
 104:pandemic.c    ****         }else{
 363              		.loc 1 104 0
 364 00b2 1A48     		ldr	r0, .L36+20
 365 00b4 FFF7FEFF 		bl	LCD_PrintString
 366              	.LVL21:
 367              	.L32:
  91:pandemic.c    ****             }
 368              		.loc 1 91 0 discriminator 1
 369 00b8 0024     		movs	r4, #0
 370 00ba 1DE0     		b	.L31
 371              	.L30:
 106:pandemic.c    ****         }
 372              		.loc 1 106 0
 373 00bc 1848     		ldr	r0, .L36+24
 374 00be FFF7FEFF 		bl	LCD_PrintString
 375              	.LVL22:
 376 00c2 F9E7     		b	.L32
 377              	.LVL23:
 378              	.L33:
 379              	.LBB2:
 109:pandemic.c    ****             LED2_Write(i == 1u ? 0u : 1u);
 380              		.loc 1 109 0 discriminator 3
 381 00c4 201C     		adds	r0, r4, #0
 382 00c6 18BF     		it	ne
 383 00c8 0120     		movne	r0, #1
 384 00ca FFF7FEFF 		bl	LED1_Write
 385              	.LVL24:
ARM GAS  C:\Users\IEUser\AppData\Local\Temp\ccsXO7e1.s 			page 12


 110:pandemic.c    ****             LED3_Write(i == 2u ? 0u : 1u);
 386              		.loc 1 110 0 discriminator 3
 387 00ce 14F1FF30 		adds	r0, r4, #-1
 388 00d2 18BF     		it	ne
 389 00d4 0120     		movne	r0, #1
 390 00d6 FFF7FEFF 		bl	LED2_Write
 391              	.LVL25:
 111:pandemic.c    ****             LED4_Write(i == 3u ? 0u : 1u);
 392              		.loc 1 111 0 discriminator 3
 393 00da A01E     		subs	r0, r4, #2
 394 00dc 18BF     		it	ne
 395 00de 0120     		movne	r0, #1
 396 00e0 FFF7FEFF 		bl	LED3_Write
 397              	.LVL26:
 112:pandemic.c    ****             vTaskDelay(75u);
 398              		.loc 1 112 0 discriminator 3
 399 00e4 E01E     		subs	r0, r4, #3
 400 00e6 18BF     		it	ne
 401 00e8 0120     		movne	r0, #1
 402 00ea FFF7FEFF 		bl	LED4_Write
 403              	.LVL27:
 113:pandemic.c    ****         }
 404              		.loc 1 113 0 discriminator 3
 405 00ee 4B20     		movs	r0, #75
 406 00f0 FFF7FEFF 		bl	vTaskDelay
 407              	.LVL28:
 108:pandemic.c    ****             LED1_Write(i == 0u ? 0u : 1u);
 408              		.loc 1 108 0 discriminator 3
 409 00f4 0134     		adds	r4, r4, #1
 410              	.LVL29:
 411 00f6 E4B2     		uxtb	r4, r4
 412              	.LVL30:
 413              	.L31:
 108:pandemic.c    ****             LED1_Write(i == 0u ? 0u : 1u);
 414              		.loc 1 108 0 is_stmt 0 discriminator 1
 415 00f8 042C     		cmp	r4, #4
 416 00fa E3D9     		bls	.L33
 417              	.LBE2:
 115:pandemic.c    ****     }
 418              		.loc 1 115 0 is_stmt 1
 419 00fc 4FF4FA70 		mov	r0, #500
 420 0100 FFF7FEFF 		bl	vTaskDelay
 421              	.LVL31:
 116:pandemic.c    **** }
 422              		.loc 1 116 0
 423 0104 CDE7     		b	.L28
 424              	.L37:
 425 0106 00BF     		.align	2
 426              	.L36:
 427 0108 00000000 		.word	quarantineMutex
 428 010c 00000000 		.word	.LANCHOR0
 429 0110 D34D6210 		.word	274877907
 430 0114 00000000 		.word	clue
 431 0118 00000000 		.word	.LANCHOR1
 432 011c 10000000 		.word	.LC1
 433 0120 1C000000 		.word	.LC2
 434              		.cfi_endproc
ARM GAS  C:\Users\IEUser\AppData\Local\Temp\ccsXO7e1.s 			page 13


 435              	.LFE68:
 436              		.size	gameTask, .-gameTask
 437              		.section	.text.getPopulationCntr,"ax",%progbits
 438              		.align	2
 439              		.global	getPopulationCntr
 440              		.thumb
 441              		.thumb_func
 442              		.type	getPopulationCntr, %function
 443              	getPopulationCntr:
 444              	.LFB75:
 197:pandemic.c    ****         }
 198:pandemic.c    ****     }
 199:pandemic.c    **** }
 200:pandemic.c    **** 
 201:pandemic.c    **** uint8 getPopulationCntr(){
 445              		.loc 1 201 0
 446              		.cfi_startproc
 447              		@ args = 0, pretend = 0, frame = 0
 448              		@ frame_needed = 0, uses_anonymous_args = 0
 449              		@ link register save eliminated.
 202:pandemic.c    ****     return populationCntr;
 203:pandemic.c    **** }
 450              		.loc 1 203 0
 451 0000 014B     		ldr	r3, .L39
 452 0002 5878     		ldrb	r0, [r3, #1]	@ zero_extendqisi2
 453 0004 7047     		bx	lr
 454              	.L40:
 455 0006 00BF     		.align	2
 456              	.L39:
 457 0008 00000000 		.word	.LANCHOR0
 458              		.cfi_endproc
 459              	.LFE75:
 460              		.size	getPopulationCntr, .-getPopulationCntr
 461              		.section	.text.getMedicineCntr,"ax",%progbits
 462              		.align	2
 463              		.global	getMedicineCntr
 464              		.thumb
 465              		.thumb_func
 466              		.type	getMedicineCntr, %function
 467              	getMedicineCntr:
 468              	.LFB76:
 204:pandemic.c    **** 
 205:pandemic.c    **** uint8 getMedicineCntr(){
 469              		.loc 1 205 0
 470              		.cfi_startproc
 471              		@ args = 0, pretend = 0, frame = 0
 472              		@ frame_needed = 0, uses_anonymous_args = 0
 473              		@ link register save eliminated.
 206:pandemic.c    ****     return medicineCntr;
 207:pandemic.c    **** }
 474              		.loc 1 207 0
 475 0000 014B     		ldr	r3, .L42
 476 0002 1878     		ldrb	r0, [r3]	@ zero_extendqisi2
 477 0004 7047     		bx	lr
 478              	.L43:
 479 0006 00BF     		.align	2
 480              	.L42:
ARM GAS  C:\Users\IEUser\AppData\Local\Temp\ccsXO7e1.s 			page 14


 481 0008 00000000 		.word	.LANCHOR1
 482              		.cfi_endproc
 483              	.LFE76:
 484              		.size	getMedicineCntr, .-getMedicineCntr
 485              		.section	.text.getVaccineCntr,"ax",%progbits
 486              		.align	2
 487              		.global	getVaccineCntr
 488              		.thumb
 489              		.thumb_func
 490              		.type	getVaccineCntr, %function
 491              	getVaccineCntr:
 492              	.LFB77:
 208:pandemic.c    **** 
 209:pandemic.c    **** uint8 getVaccineCntr(){
 493              		.loc 1 209 0
 494              		.cfi_startproc
 495              		@ args = 0, pretend = 0, frame = 0
 496              		@ frame_needed = 0, uses_anonymous_args = 0
 497              		@ link register save eliminated.
 210:pandemic.c    ****     return vaccineCntr;
 211:pandemic.c    **** }
 498              		.loc 1 211 0
 499 0000 014B     		ldr	r3, .L45
 500 0002 5878     		ldrb	r0, [r3, #1]	@ zero_extendqisi2
 501 0004 7047     		bx	lr
 502              	.L46:
 503 0006 00BF     		.align	2
 504              	.L45:
 505 0008 00000000 		.word	.LANCHOR1
 506              		.cfi_endproc
 507              	.LFE77:
 508              		.size	getVaccineCntr, .-getVaccineCntr
 509              		.section	.text.encode,"ax",%progbits
 510              		.align	2
 511              		.global	encode
 512              		.thumb
 513              		.thumb_func
 514              		.type	encode, %function
 515              	encode:
 516              	.LFB78:
 212:pandemic.c    **** 
 213:pandemic.c    **** uint8_t encode(uint8_t n){
 517              		.loc 1 213 0
 518              		.cfi_startproc
 519              		@ args = 0, pretend = 0, frame = 0
 520              		@ frame_needed = 0, uses_anonymous_args = 0
 521              		@ link register save eliminated.
 522              	.LVL32:
 214:pandemic.c    ****     int mask = 0b01001101001110011 >> 3u;
 215:pandemic.c    ****     n = (n & ~mask) | (~n & mask);
 216:pandemic.c    ****     return n;
 217:pandemic.c    **** }
 523              		.loc 1 217 0
 524 0000 80F04E00 		eor	r0, r0, #78
 525              	.LVL33:
 526 0004 7047     		bx	lr
 527              		.cfi_endproc
ARM GAS  C:\Users\IEUser\AppData\Local\Temp\ccsXO7e1.s 			page 15


 528              	.LFE78:
 529              		.size	encode, .-encode
 530 0006 00BF     		.section	.text.assignMissionToLab,"ax",%progbits
 531              		.align	2
 532              		.global	assignMissionToLab
 533              		.thumb
 534              		.thumb_func
 535              		.type	assignMissionToLab, %function
 536              	assignMissionToLab:
 537              	.LFB70:
 130:pandemic.c    ****     Token result;
 538              		.loc 1 130 0
 539              		.cfi_startproc
 540              		@ args = 0, pretend = 0, frame = 0
 541              		@ frame_needed = 0, uses_anonymous_args = 0
 542              	.LVL34:
 543 0000 38B5     		push	{r3, r4, r5, lr}
 544              		.cfi_def_cfa_offset 16
 545              		.cfi_offset 3, -16
 546              		.cfi_offset 4, -12
 547              		.cfi_offset 5, -8
 548              		.cfi_offset 14, -4
 549 0002 0446     		mov	r4, r0
 133:pandemic.c    ****     uint32 delay;
 550              		.loc 1 133 0
 551 0004 0B4B     		ldr	r3, .L53
 552 0006 1870     		strb	r0, [r3]
 137:pandemic.c    ****         delay = MEDICINE_DELAY;    
 553              		.loc 1 137 0
 554 0008 28B1     		cbz	r0, .L51
 555              	.LVL35:
 144:pandemic.c    ****     }
 556              		.loc 1 144 0
 557 000a FFF7FEFF 		bl	encode
 558              	.LVL36:
 559 000e 0546     		mov	r5, r0
 560              	.LVL37:
 143:pandemic.c    ****         result = encode(mission);
 561              		.loc 1 143 0
 562 0010 40F6C410 		movw	r0, #2500
 563 0014 02E0     		b	.L49
 564              	.LVL38:
 565              	.L51:
 138:pandemic.c    ****         result = 0u;
 566              		.loc 1 138 0
 567 0016 4FF4FA70 		mov	r0, #500
 568              	.LVL39:
 139:pandemic.c    ****     
 569              		.loc 1 139 0
 570 001a 0025     		movs	r5, #0
 571              	.LVL40:
 572              	.L49:
 147:pandemic.c    ****     
 573              		.loc 1 147 0
 574 001c FFF7FEFF 		bl	CyDelay
 575              	.LVL41:
 149:pandemic.c    ****         /* You lose !
ARM GAS  C:\Users\IEUser\AppData\Local\Temp\ccsXO7e1.s 			page 16


 576              		.loc 1 149 0
 577 0020 044B     		ldr	r3, .L53
 578 0022 1B78     		ldrb	r3, [r3]	@ zero_extendqisi2
 579 0024 9C42     		cmp	r4, r3
 580 0026 02D0     		beq	.L50
 152:pandemic.c    ****     }
 581              		.loc 1 152 0
 582 0028 0022     		movs	r2, #0
 583 002a 034B     		ldr	r3, .L53+4
 584 002c 5A70     		strb	r2, [r3, #1]
 585              	.L50:
 156:pandemic.c    **** 
 586              		.loc 1 156 0
 587 002e 2846     		mov	r0, r5
 588 0030 38BD     		pop	{r3, r4, r5, pc}
 589              	.LVL42:
 590              	.L54:
 591 0032 00BF     		.align	2
 592              	.L53:
 593 0034 00000000 		.word	missionCpy
 594 0038 00000000 		.word	.LANCHOR0
 595              		.cfi_endproc
 596              	.LFE70:
 597              		.size	assignMissionToLab, .-assignMissionToLab
 598              		.section	.text.shipVaccine,"ax",%progbits
 599              		.align	2
 600              		.global	shipVaccine
 601              		.thumb
 602              		.thumb_func
 603              		.type	shipVaccine, %function
 604              	shipVaccine:
 605              	.LFB72:
 165:pandemic.c    ****     if (vaccine == encode(clue))
 606              		.loc 1 165 0
 607              		.cfi_startproc
 608              		@ args = 0, pretend = 0, frame = 0
 609              		@ frame_needed = 0, uses_anonymous_args = 0
 610              	.LVL43:
 611 0000 10B5     		push	{r4, lr}
 612              		.cfi_def_cfa_offset 8
 613              		.cfi_offset 4, -8
 614              		.cfi_offset 14, -4
 615 0002 0446     		mov	r4, r0
 166:pandemic.c    ****     {
 616              		.loc 1 166 0
 617 0004 054B     		ldr	r3, .L58
 618 0006 1878     		ldrb	r0, [r3]	@ zero_extendqisi2
 619              	.LVL44:
 620 0008 FFF7FEFF 		bl	encode
 621              	.LVL45:
 622 000c A042     		cmp	r0, r4
 623 000e 03D1     		bne	.L55
 168:pandemic.c    ****     }
 624              		.loc 1 168 0
 625 0010 034A     		ldr	r2, .L58+4
 626 0012 5378     		ldrb	r3, [r2, #1]	@ zero_extendqisi2
 627 0014 0333     		adds	r3, r3, #3
ARM GAS  C:\Users\IEUser\AppData\Local\Temp\ccsXO7e1.s 			page 17


 628 0016 5370     		strb	r3, [r2, #1]
 629              	.L55:
 630 0018 10BD     		pop	{r4, pc}
 631              	.L59:
 632 001a 00BF     		.align	2
 633              	.L58:
 634 001c 00000000 		.word	clue
 635 0020 00000000 		.word	.LANCHOR1
 636              		.cfi_endproc
 637              	.LFE72:
 638              		.size	shipVaccine, .-shipVaccine
 639              		.comm	contaminationHandler,4,4
 640              		.comm	quarantineMutex,4,4
 641              		.comm	clue,1,1
 642              		.comm	missionCpy,1,1
 643              		.global	virusPeriod
 644              		.global	cluePeriod
 645              		.global	contaminationPeriod
 646              		.global	quarantineStatus
 647              		.global	medicineCntr
 648              		.global	vaccineCntr
 649              		.global	populationCntr
 650              		.data
 651              		.align	1
 652              		.set	.LANCHOR0,. + 0
 653              		.type	quarantineStatus, %object
 654              		.size	quarantineStatus, 1
 655              	quarantineStatus:
 656 0000 01       		.byte	1
 657              		.type	populationCntr, %object
 658              		.size	populationCntr, 1
 659              	populationCntr:
 660 0001 64       		.byte	100
 661              		.type	contaminationPeriod, %object
 662              		.size	contaminationPeriod, 2
 663              	contaminationPeriod:
 664 0002 3200     		.short	50
 665              		.type	cluePeriod, %object
 666              		.size	cluePeriod, 2
 667              	cluePeriod:
 668 0004 2C01     		.short	300
 669              		.type	virusPeriod, %object
 670              		.size	virusPeriod, 2
 671              	virusPeriod:
 672 0006 F401     		.short	500
 673              		.section	.rodata.str1.4,"aMS",%progbits,1
 674              		.align	2
 675              	.LC0:
 676 0000 436F6E74 		.ascii	"Contamination\000"
 676      616D696E 
 676      6174696F 
 676      6E00
 677 000e 0000     		.space	2
 678              	.LC1:
 679 0010 20202057 		.ascii	"   WIN  \000"
 679      494E2020 
 679      00
ARM GAS  C:\Users\IEUser\AppData\Local\Temp\ccsXO7e1.s 			page 18


 680 0019 000000   		.space	3
 681              	.LC2:
 682 001c 20204C4F 		.ascii	"  LOSE  \000"
 682      53452020 
 682      00
 683              		.bss
 684              		.set	.LANCHOR1,. + 0
 685              		.type	medicineCntr, %object
 686              		.size	medicineCntr, 1
 687              	medicineCntr:
 688 0000 00       		.space	1
 689              		.type	vaccineCntr, %object
 690              		.size	vaccineCntr, 1
 691              	vaccineCntr:
 692 0001 00       		.space	1
 693              		.text
 694              	.Letext0:
 695              		.file 2 "c:\\program files (x86)\\cypress\\psoc creator\\4.3\\psoc creator\\import\\gnu\\arm\\5.4.
 696              		.file 3 "c:\\program files (x86)\\cypress\\psoc creator\\4.3\\psoc creator\\import\\gnu\\arm\\5.4.
 697              		.file 4 ".\\FreeRTOS\\include/portmacro.h"
 698              		.file 5 ".\\FreeRTOS\\include/timers.h"
 699              		.file 6 ".\\FreeRTOS\\include/queue.h"
 700              		.file 7 ".\\FreeRTOS\\include/semphr.h"
 701              		.file 8 "Generated_Source\\PSoC5/cytypes.h"
 702              		.file 9 "pandemic.h"
 703              		.file 10 "Generated_Source\\PSoC5/core_cm3.h"
 704              		.file 11 "Generated_Source\\PSoC5/CyLib.h"
 705              		.file 12 ".\\FreeRTOS\\include/task.h"
 706              		.file 13 "Generated_Source\\PSoC5/LED1.h"
 707              		.file 14 "Generated_Source\\PSoC5/LED2.h"
 708              		.file 15 "Generated_Source\\PSoC5/LED3.h"
 709              		.file 16 "Generated_Source\\PSoC5/LED4.h"
 710              		.file 17 "c:\\program files (x86)\\cypress\\psoc creator\\4.3\\psoc creator\\import\\gnu\\arm\\5.4
 711              		.file 18 "Generated_Source\\PSoC5/LCD.h"